Microsoft (R) COFF/PE Dumper Version 8.00.50727.762
Copyright (C) Microsoft Corporation.  All rights reserved.


Dump of file QtSolutions_PropertyBrowser-2.5d.lib

File Type: LIBRARY

COFF SYMBOL TABLE
000 007BC627 ABS    notype       Static       | @comp.id
001 00000000 SECT2  notype       External     | __IMPORT_DESCRIPTOR_QtSolutions_PropertyBrowser-2.5d
002 C0000040 SECT2  notype       Section      | .idata$2
003 00000000 SECT3  notype       Static       | .idata$6
004 C0000040 UNDEF  notype       Section      | .idata$4
005 C0000040 UNDEF  notype       Section      | .idata$5
006 00000000 UNDEF  notype       External     | __NULL_IMPORT_DESCRIPTOR
007 00000000 UNDEF  notype       External     | QtSolutions_PropertyBrowser-2.5d_NULL_THUNK_DATA

String Table Size = 0x84 bytes

COFF SYMBOL TABLE
000 007BC627 ABS    notype       Static       | @comp.id
001 00000000 SECT2  notype       External     | __NULL_IMPORT_DESCRIPTOR

String Table Size = 0x1D bytes

COFF SYMBOL TABLE
000 007BC627 ABS    notype       Static       | @comp.id
001 00000000 SECT2  notype       External     | QtSolutions_PropertyBrowser-2.5d_NULL_THUNK_DATA

String Table Size = 0x36 bytes

     Exports

       ordinal    name

                  ??0?$QtAbstractEditorFactory@VQtBoolPropertyManager@@@@QAE@PAVQObject@@@Z (public: __thiscall QtAbstractEditorFactory<class QtBoolPropertyManager>::QtAbstractEditorFactory<class QtBoolPropertyManager>(class QObject *))
                  ??0?$QtAbstractEditorFactory@VQtCharPropertyManager@@@@QAE@PAVQObject@@@Z (public: __thiscall QtAbstractEditorFactory<class QtCharPropertyManager>::QtAbstractEditorFactory<class QtCharPropertyManager>(class QObject *))
                  ??0?$QtAbstractEditorFactory@VQtColorPropertyManager@@@@QAE@PAVQObject@@@Z (public: __thiscall QtAbstractEditorFactory<class QtColorPropertyManager>::QtAbstractEditorFactory<class QtColorPropertyManager>(class QObject *))
                  ??0?$QtAbstractEditorFactory@VQtCursorPropertyManager@@@@QAE@PAVQObject@@@Z (public: __thiscall QtAbstractEditorFactory<class QtCursorPropertyManager>::QtAbstractEditorFactory<class QtCursorPropertyManager>(class QObject *))
                  ??0?$QtAbstractEditorFactory@VQtDatePropertyManager@@@@QAE@PAVQObject@@@Z (public: __thiscall QtAbstractEditorFactory<class QtDatePropertyManager>::QtAbstractEditorFactory<class QtDatePropertyManager>(class QObject *))
                  ??0?$QtAbstractEditorFactory@VQtDateTimePropertyManager@@@@QAE@PAVQObject@@@Z (public: __thiscall QtAbstractEditorFactory<class QtDateTimePropertyManager>::QtAbstractEditorFactory<class QtDateTimePropertyManager>(class QObject *))
                  ??0?$QtAbstractEditorFactory@VQtDoublePropertyManager@@@@QAE@PAVQObject@@@Z (public: __thiscall QtAbstractEditorFactory<class QtDoublePropertyManager>::QtAbstractEditorFactory<class QtDoublePropertyManager>(class QObject *))
                  ??0?$QtAbstractEditorFactory@VQtEnumPropertyManager@@@@QAE@PAVQObject@@@Z (public: __thiscall QtAbstractEditorFactory<class QtEnumPropertyManager>::QtAbstractEditorFactory<class QtEnumPropertyManager>(class QObject *))
                  ??0?$QtAbstractEditorFactory@VQtFontPropertyManager@@@@QAE@PAVQObject@@@Z (public: __thiscall QtAbstractEditorFactory<class QtFontPropertyManager>::QtAbstractEditorFactory<class QtFontPropertyManager>(class QObject *))
                  ??0?$QtAbstractEditorFactory@VQtIntPropertyManager@@@@QAE@PAVQObject@@@Z (public: __thiscall QtAbstractEditorFactory<class QtIntPropertyManager>::QtAbstractEditorFactory<class QtIntPropertyManager>(class QObject *))
                  ??0?$QtAbstractEditorFactory@VQtKeySequencePropertyManager@@@@QAE@PAVQObject@@@Z (public: __thiscall QtAbstractEditorFactory<class QtKeySequencePropertyManager>::QtAbstractEditorFactory<class QtKeySequencePropertyManager>(class QObject *))
                  ??0?$QtAbstractEditorFactory@VQtStringPropertyManager@@@@QAE@PAVQObject@@@Z (public: __thiscall QtAbstractEditorFactory<class QtStringPropertyManager>::QtAbstractEditorFactory<class QtStringPropertyManager>(class QObject *))
                  ??0?$QtAbstractEditorFactory@VQtTimePropertyManager@@@@QAE@PAVQObject@@@Z (public: __thiscall QtAbstractEditorFactory<class QtTimePropertyManager>::QtAbstractEditorFactory<class QtTimePropertyManager>(class QObject *))
                  ??0?$QtAbstractEditorFactory@VQtVariantPropertyManager@@@@QAE@PAVQObject@@@Z (public: __thiscall QtAbstractEditorFactory<class QtVariantPropertyManager>::QtAbstractEditorFactory<class QtVariantPropertyManager>(class QObject *))
                  ??0QtAbstractEditorFactoryBase@@IAE@PAVQObject@@@Z (protected: __thiscall QtAbstractEditorFactoryBase::QtAbstractEditorFactoryBase(class QObject *))
                  ??0QtAbstractPropertyBrowser@@QAE@PAVQWidget@@@Z (public: __thiscall QtAbstractPropertyBrowser::QtAbstractPropertyBrowser(class QWidget *))
                  ??0QtAbstractPropertyManager@@QAE@PAVQObject@@@Z (public: __thiscall QtAbstractPropertyManager::QtAbstractPropertyManager(class QObject *))
                  ??0QtBoolPropertyManager@@QAE@PAVQObject@@@Z (public: __thiscall QtBoolPropertyManager::QtBoolPropertyManager(class QObject *))
                  ??0QtBrowserItem@@AAE@PAVQtAbstractPropertyBrowser@@PAVQtProperty@@PAV0@@Z (private: __thiscall QtBrowserItem::QtBrowserItem(class QtAbstractPropertyBrowser *,class QtProperty *,class QtBrowserItem *))
                  ??0QtButtonPropertyBrowser@@QAE@PAVQWidget@@@Z (public: __thiscall QtButtonPropertyBrowser::QtButtonPropertyBrowser(class QWidget *))
                  ??0QtCharEditorFactory@@QAE@PAVQObject@@@Z (public: __thiscall QtCharEditorFactory::QtCharEditorFactory(class QObject *))
                  ??0QtCharPropertyManager@@QAE@PAVQObject@@@Z (public: __thiscall QtCharPropertyManager::QtCharPropertyManager(class QObject *))
                  ??0QtCheckBoxFactory@@QAE@PAVQObject@@@Z (public: __thiscall QtCheckBoxFactory::QtCheckBoxFactory(class QObject *))
                  ??0QtColorEditorFactory@@QAE@PAVQObject@@@Z (public: __thiscall QtColorEditorFactory::QtColorEditorFactory(class QObject *))
                  ??0QtColorPropertyManager@@QAE@PAVQObject@@@Z (public: __thiscall QtColorPropertyManager::QtColorPropertyManager(class QObject *))
                  ??0QtCursorEditorFactory@@QAE@PAVQObject@@@Z (public: __thiscall QtCursorEditorFactory::QtCursorEditorFactory(class QObject *))
                  ??0QtCursorPropertyManager@@QAE@PAVQObject@@@Z (public: __thiscall QtCursorPropertyManager::QtCursorPropertyManager(class QObject *))
                  ??0QtDateEditFactory@@QAE@PAVQObject@@@Z (public: __thiscall QtDateEditFactory::QtDateEditFactory(class QObject *))
                  ??0QtDatePropertyManager@@QAE@PAVQObject@@@Z (public: __thiscall QtDatePropertyManager::QtDatePropertyManager(class QObject *))
                  ??0QtDateTimeEditFactory@@QAE@PAVQObject@@@Z (public: __thiscall QtDateTimeEditFactory::QtDateTimeEditFactory(class QObject *))
                  ??0QtDateTimePropertyManager@@QAE@PAVQObject@@@Z (public: __thiscall QtDateTimePropertyManager::QtDateTimePropertyManager(class QObject *))
                  ??0QtDoublePropertyManager@@QAE@PAVQObject@@@Z (public: __thiscall QtDoublePropertyManager::QtDoublePropertyManager(class QObject *))
                  ??0QtDoubleSpinBoxFactory@@QAE@PAVQObject@@@Z (public: __thiscall QtDoubleSpinBoxFactory::QtDoubleSpinBoxFactory(class QObject *))
                  ??0QtEnumEditorFactory@@QAE@PAVQObject@@@Z (public: __thiscall QtEnumEditorFactory::QtEnumEditorFactory(class QObject *))
                  ??0QtEnumPropertyManager@@QAE@PAVQObject@@@Z (public: __thiscall QtEnumPropertyManager::QtEnumPropertyManager(class QObject *))
                  ??0QtFlagPropertyManager@@QAE@PAVQObject@@@Z (public: __thiscall QtFlagPropertyManager::QtFlagPropertyManager(class QObject *))
                  ??0QtFontEditorFactory@@QAE@PAVQObject@@@Z (public: __thiscall QtFontEditorFactory::QtFontEditorFactory(class QObject *))
                  ??0QtFontPropertyManager@@QAE@PAVQObject@@@Z (public: __thiscall QtFontPropertyManager::QtFontPropertyManager(class QObject *))
                  ??0QtGroupBoxPropertyBrowser@@QAE@PAVQWidget@@@Z (public: __thiscall QtGroupBoxPropertyBrowser::QtGroupBoxPropertyBrowser(class QWidget *))
                  ??0QtGroupPropertyManager@@QAE@PAVQObject@@@Z (public: __thiscall QtGroupPropertyManager::QtGroupPropertyManager(class QObject *))
                  ??0QtIntPropertyManager@@QAE@PAVQObject@@@Z (public: __thiscall QtIntPropertyManager::QtIntPropertyManager(class QObject *))
                  ??0QtKeySequenceEditorFactory@@QAE@PAVQObject@@@Z (public: __thiscall QtKeySequenceEditorFactory::QtKeySequenceEditorFactory(class QObject *))
                  ??0QtKeySequencePropertyManager@@QAE@PAVQObject@@@Z (public: __thiscall QtKeySequencePropertyManager::QtKeySequencePropertyManager(class QObject *))
                  ??0QtLineEditFactory@@QAE@PAVQObject@@@Z (public: __thiscall QtLineEditFactory::QtLineEditFactory(class QObject *))
                  ??0QtLocalePropertyManager@@QAE@PAVQObject@@@Z (public: __thiscall QtLocalePropertyManager::QtLocalePropertyManager(class QObject *))
                  ??0QtPointFPropertyManager@@QAE@PAVQObject@@@Z (public: __thiscall QtPointFPropertyManager::QtPointFPropertyManager(class QObject *))
                  ??0QtPointPropertyManager@@QAE@PAVQObject@@@Z (public: __thiscall QtPointPropertyManager::QtPointPropertyManager(class QObject *))
                  ??0QtProperty@@IAE@PAVQtAbstractPropertyManager@@@Z (protected: __thiscall QtProperty::QtProperty(class QtAbstractPropertyManager *))
                  ??0QtProperty@@QAE@ABV0@@Z (public: __thiscall QtProperty::QtProperty(class QtProperty const &))
                  ??0QtRectFPropertyManager@@QAE@PAVQObject@@@Z (public: __thiscall QtRectFPropertyManager::QtRectFPropertyManager(class QObject *))
                  ??0QtRectPropertyManager@@QAE@PAVQObject@@@Z (public: __thiscall QtRectPropertyManager::QtRectPropertyManager(class QObject *))
                  ??0QtScrollBarFactory@@QAE@PAVQObject@@@Z (public: __thiscall QtScrollBarFactory::QtScrollBarFactory(class QObject *))
                  ??0QtSizeFPropertyManager@@QAE@PAVQObject@@@Z (public: __thiscall QtSizeFPropertyManager::QtSizeFPropertyManager(class QObject *))
                  ??0QtSizePolicyPropertyManager@@QAE@PAVQObject@@@Z (public: __thiscall QtSizePolicyPropertyManager::QtSizePolicyPropertyManager(class QObject *))
                  ??0QtSizePropertyManager@@QAE@PAVQObject@@@Z (public: __thiscall QtSizePropertyManager::QtSizePropertyManager(class QObject *))
                  ??0QtSliderFactory@@QAE@PAVQObject@@@Z (public: __thiscall QtSliderFactory::QtSliderFactory(class QObject *))
                  ??0QtSpinBoxFactory@@QAE@PAVQObject@@@Z (public: __thiscall QtSpinBoxFactory::QtSpinBoxFactory(class QObject *))
                  ??0QtStringPropertyManager@@QAE@PAVQObject@@@Z (public: __thiscall QtStringPropertyManager::QtStringPropertyManager(class QObject *))
                  ??0QtTimeEditFactory@@QAE@PAVQObject@@@Z (public: __thiscall QtTimeEditFactory::QtTimeEditFactory(class QObject *))
                  ??0QtTimePropertyManager@@QAE@PAVQObject@@@Z (public: __thiscall QtTimePropertyManager::QtTimePropertyManager(class QObject *))
                  ??0QtTreePropertyBrowser@@QAE@PAVQWidget@@@Z (public: __thiscall QtTreePropertyBrowser::QtTreePropertyBrowser(class QWidget *))
                  ??0QtVariantEditorFactory@@QAE@PAVQObject@@@Z (public: __thiscall QtVariantEditorFactory::QtVariantEditorFactory(class QObject *))
                  ??0QtVariantProperty@@IAE@PAVQtVariantPropertyManager@@@Z (protected: __thiscall QtVariantProperty::QtVariantProperty(class QtVariantPropertyManager *))
                  ??0QtVariantProperty@@QAE@ABV0@@Z (public: __thiscall QtVariantProperty::QtVariantProperty(class QtVariantProperty const &))
                  ??0QtVariantPropertyManager@@QAE@PAVQObject@@@Z (public: __thiscall QtVariantPropertyManager::QtVariantPropertyManager(class QObject *))
                  ??1?$QtAbstractEditorFactory@VQtBoolPropertyManager@@@@UAE@XZ (public: virtual __thiscall QtAbstractEditorFactory<class QtBoolPropertyManager>::~QtAbstractEditorFactory<class QtBoolPropertyManager>(void))
                  ??1?$QtAbstractEditorFactory@VQtCharPropertyManager@@@@UAE@XZ (public: virtual __thiscall QtAbstractEditorFactory<class QtCharPropertyManager>::~QtAbstractEditorFactory<class QtCharPropertyManager>(void))
                  ??1?$QtAbstractEditorFactory@VQtColorPropertyManager@@@@UAE@XZ (public: virtual __thiscall QtAbstractEditorFactory<class QtColorPropertyManager>::~QtAbstractEditorFactory<class QtColorPropertyManager>(void))
                  ??1?$QtAbstractEditorFactory@VQtCursorPropertyManager@@@@UAE@XZ (public: virtual __thiscall QtAbstractEditorFactory<class QtCursorPropertyManager>::~QtAbstractEditorFactory<class QtCursorPropertyManager>(void))
                  ??1?$QtAbstractEditorFactory@VQtDatePropertyManager@@@@UAE@XZ (public: virtual __thiscall QtAbstractEditorFactory<class QtDatePropertyManager>::~QtAbstractEditorFactory<class QtDatePropertyManager>(void))
                  ??1?$QtAbstractEditorFactory@VQtDateTimePropertyManager@@@@UAE@XZ (public: virtual __thiscall QtAbstractEditorFactory<class QtDateTimePropertyManager>::~QtAbstractEditorFactory<class QtDateTimePropertyManager>(void))
                  ??1?$QtAbstractEditorFactory@VQtDoublePropertyManager@@@@UAE@XZ (public: virtual __thiscall QtAbstractEditorFactory<class QtDoublePropertyManager>::~QtAbstractEditorFactory<class QtDoublePropertyManager>(void))
                  ??1?$QtAbstractEditorFactory@VQtEnumPropertyManager@@@@UAE@XZ (public: virtual __thiscall QtAbstractEditorFactory<class QtEnumPropertyManager>::~QtAbstractEditorFactory<class QtEnumPropertyManager>(void))
                  ??1?$QtAbstractEditorFactory@VQtFontPropertyManager@@@@UAE@XZ (public: virtual __thiscall QtAbstractEditorFactory<class QtFontPropertyManager>::~QtAbstractEditorFactory<class QtFontPropertyManager>(void))
                  ??1?$QtAbstractEditorFactory@VQtIntPropertyManager@@@@UAE@XZ (public: virtual __thiscall QtAbstractEditorFactory<class QtIntPropertyManager>::~QtAbstractEditorFactory<class QtIntPropertyManager>(void))
                  ??1?$QtAbstractEditorFactory@VQtKeySequencePropertyManager@@@@UAE@XZ (public: virtual __thiscall QtAbstractEditorFactory<class QtKeySequencePropertyManager>::~QtAbstractEditorFactory<class QtKeySequencePropertyManager>(void))
                  ??1?$QtAbstractEditorFactory@VQtStringPropertyManager@@@@UAE@XZ (public: virtual __thiscall QtAbstractEditorFactory<class QtStringPropertyManager>::~QtAbstractEditorFactory<class QtStringPropertyManager>(void))
                  ??1?$QtAbstractEditorFactory@VQtTimePropertyManager@@@@UAE@XZ (public: virtual __thiscall QtAbstractEditorFactory<class QtTimePropertyManager>::~QtAbstractEditorFactory<class QtTimePropertyManager>(void))
                  ??1?$QtAbstractEditorFactory@VQtVariantPropertyManager@@@@UAE@XZ (public: virtual __thiscall QtAbstractEditorFactory<class QtVariantPropertyManager>::~QtAbstractEditorFactory<class QtVariantPropertyManager>(void))
                  ??1QtAbstractEditorFactoryBase@@UAE@XZ (public: virtual __thiscall QtAbstractEditorFactoryBase::~QtAbstractEditorFactoryBase(void))
                  ??1QtAbstractPropertyBrowser@@UAE@XZ (public: virtual __thiscall QtAbstractPropertyBrowser::~QtAbstractPropertyBrowser(void))
                  ??1QtAbstractPropertyManager@@UAE@XZ (public: virtual __thiscall QtAbstractPropertyManager::~QtAbstractPropertyManager(void))
                  ??1QtBoolPropertyManager@@UAE@XZ (public: virtual __thiscall QtBoolPropertyManager::~QtBoolPropertyManager(void))
                  ??1QtBrowserItem@@AAE@XZ (private: __thiscall QtBrowserItem::~QtBrowserItem(void))
                  ??1QtButtonPropertyBrowser@@UAE@XZ (public: virtual __thiscall QtButtonPropertyBrowser::~QtButtonPropertyBrowser(void))
                  ??1QtCharEditorFactory@@UAE@XZ (public: virtual __thiscall QtCharEditorFactory::~QtCharEditorFactory(void))
                  ??1QtCharPropertyManager@@UAE@XZ (public: virtual __thiscall QtCharPropertyManager::~QtCharPropertyManager(void))
                  ??1QtCheckBoxFactory@@UAE@XZ (public: virtual __thiscall QtCheckBoxFactory::~QtCheckBoxFactory(void))
                  ??1QtColorEditorFactory@@UAE@XZ (public: virtual __thiscall QtColorEditorFactory::~QtColorEditorFactory(void))
                  ??1QtColorPropertyManager@@UAE@XZ (public: virtual __thiscall QtColorPropertyManager::~QtColorPropertyManager(void))
                  ??1QtCursorEditorFactory@@UAE@XZ (public: virtual __thiscall QtCursorEditorFactory::~QtCursorEditorFactory(void))
                  ??1QtCursorPropertyManager@@UAE@XZ (public: virtual __thiscall QtCursorPropertyManager::~QtCursorPropertyManager(void))
                  ??1QtDateEditFactory@@UAE@XZ (public: virtual __thiscall QtDateEditFactory::~QtDateEditFactory(void))
                  ??1QtDatePropertyManager@@UAE@XZ (public: virtual __thiscall QtDatePropertyManager::~QtDatePropertyManager(void))
                  ??1QtDateTimeEditFactory@@UAE@XZ (public: virtual __thiscall QtDateTimeEditFactory::~QtDateTimeEditFactory(void))
                  ??1QtDateTimePropertyManager@@UAE@XZ (public: virtual __thiscall QtDateTimePropertyManager::~QtDateTimePropertyManager(void))
                  ??1QtDoublePropertyManager@@UAE@XZ (public: virtual __thiscall QtDoublePropertyManager::~QtDoublePropertyManager(void))
                  ??1QtDoubleSpinBoxFactory@@UAE@XZ (public: virtual __thiscall QtDoubleSpinBoxFactory::~QtDoubleSpinBoxFactory(void))
                  ??1QtEnumEditorFactory@@UAE@XZ (public: virtual __thiscall QtEnumEditorFactory::~QtEnumEditorFactory(void))
                  ??1QtEnumPropertyManager@@UAE@XZ (public: virtual __thiscall QtEnumPropertyManager::~QtEnumPropertyManager(void))
                  ??1QtFlagPropertyManager@@UAE@XZ (public: virtual __thiscall QtFlagPropertyManager::~QtFlagPropertyManager(void))
                  ??1QtFontEditorFactory@@UAE@XZ (public: virtual __thiscall QtFontEditorFactory::~QtFontEditorFactory(void))
                  ??1QtFontPropertyManager@@UAE@XZ (public: virtual __thiscall QtFontPropertyManager::~QtFontPropertyManager(void))
                  ??1QtGroupBoxPropertyBrowser@@UAE@XZ (public: virtual __thiscall QtGroupBoxPropertyBrowser::~QtGroupBoxPropertyBrowser(void))
                  ??1QtGroupPropertyManager@@UAE@XZ (public: virtual __thiscall QtGroupPropertyManager::~QtGroupPropertyManager(void))
                  ??1QtIntPropertyManager@@UAE@XZ (public: virtual __thiscall QtIntPropertyManager::~QtIntPropertyManager(void))
                  ??1QtKeySequenceEditorFactory@@UAE@XZ (public: virtual __thiscall QtKeySequenceEditorFactory::~QtKeySequenceEditorFactory(void))
                  ??1QtKeySequencePropertyManager@@UAE@XZ (public: virtual __thiscall QtKeySequencePropertyManager::~QtKeySequencePropertyManager(void))
                  ??1QtLineEditFactory@@UAE@XZ (public: virtual __thiscall QtLineEditFactory::~QtLineEditFactory(void))
                  ??1QtLocalePropertyManager@@UAE@XZ (public: virtual __thiscall QtLocalePropertyManager::~QtLocalePropertyManager(void))
                  ??1QtPointFPropertyManager@@UAE@XZ (public: virtual __thiscall QtPointFPropertyManager::~QtPointFPropertyManager(void))
                  ??1QtPointPropertyManager@@UAE@XZ (public: virtual __thiscall QtPointPropertyManager::~QtPointPropertyManager(void))
                  ??1QtProperty@@UAE@XZ (public: virtual __thiscall QtProperty::~QtProperty(void))
                  ??1QtRectFPropertyManager@@UAE@XZ (public: virtual __thiscall QtRectFPropertyManager::~QtRectFPropertyManager(void))
                  ??1QtRectPropertyManager@@UAE@XZ (public: virtual __thiscall QtRectPropertyManager::~QtRectPropertyManager(void))
                  ??1QtScrollBarFactory@@UAE@XZ (public: virtual __thiscall QtScrollBarFactory::~QtScrollBarFactory(void))
                  ??1QtSizeFPropertyManager@@UAE@XZ (public: virtual __thiscall QtSizeFPropertyManager::~QtSizeFPropertyManager(void))
                  ??1QtSizePolicyPropertyManager@@UAE@XZ (public: virtual __thiscall QtSizePolicyPropertyManager::~QtSizePolicyPropertyManager(void))
                  ??1QtSizePropertyManager@@UAE@XZ (public: virtual __thiscall QtSizePropertyManager::~QtSizePropertyManager(void))
                  ??1QtSliderFactory@@UAE@XZ (public: virtual __thiscall QtSliderFactory::~QtSliderFactory(void))
                  ??1QtSpinBoxFactory@@UAE@XZ (public: virtual __thiscall QtSpinBoxFactory::~QtSpinBoxFactory(void))
                  ??1QtStringPropertyManager@@UAE@XZ (public: virtual __thiscall QtStringPropertyManager::~QtStringPropertyManager(void))
                  ??1QtTimeEditFactory@@UAE@XZ (public: virtual __thiscall QtTimeEditFactory::~QtTimeEditFactory(void))
                  ??1QtTimePropertyManager@@UAE@XZ (public: virtual __thiscall QtTimePropertyManager::~QtTimePropertyManager(void))
                  ??1QtTreePropertyBrowser@@UAE@XZ (public: virtual __thiscall QtTreePropertyBrowser::~QtTreePropertyBrowser(void))
                  ??1QtVariantEditorFactory@@UAE@XZ (public: virtual __thiscall QtVariantEditorFactory::~QtVariantEditorFactory(void))
                  ??1QtVariantProperty@@UAE@XZ (public: virtual __thiscall QtVariantProperty::~QtVariantProperty(void))
                  ??1QtVariantPropertyManager@@UAE@XZ (public: virtual __thiscall QtVariantPropertyManager::~QtVariantPropertyManager(void))
                  ??4QtBrowserItem@@QAEAAV0@ABV0@@Z (public: class QtBrowserItem & __thiscall QtBrowserItem::operator=(class QtBrowserItem const &))
                  ??4QtProperty@@QAEAAV0@ABV0@@Z (public: class QtProperty & __thiscall QtProperty::operator=(class QtProperty const &))
                  ??4QtVariantProperty@@QAEAAV0@ABV0@@Z (public: class QtVariantProperty & __thiscall QtVariantProperty::operator=(class QtVariantProperty const &))
                  ??_7?$QtAbstractEditorFactory@VQtBoolPropertyManager@@@@6B@ (const QtAbstractEditorFactory<class QtBoolPropertyManager>::`vftable')
                  ??_7?$QtAbstractEditorFactory@VQtCharPropertyManager@@@@6B@ (const QtAbstractEditorFactory<class QtCharPropertyManager>::`vftable')
                  ??_7?$QtAbstractEditorFactory@VQtColorPropertyManager@@@@6B@ (const QtAbstractEditorFactory<class QtColorPropertyManager>::`vftable')
                  ??_7?$QtAbstractEditorFactory@VQtCursorPropertyManager@@@@6B@ (const QtAbstractEditorFactory<class QtCursorPropertyManager>::`vftable')
                  ??_7?$QtAbstractEditorFactory@VQtDatePropertyManager@@@@6B@ (const QtAbstractEditorFactory<class QtDatePropertyManager>::`vftable')
                  ??_7?$QtAbstractEditorFactory@VQtDateTimePropertyManager@@@@6B@ (const QtAbstractEditorFactory<class QtDateTimePropertyManager>::`vftable')
                  ??_7?$QtAbstractEditorFactory@VQtDoublePropertyManager@@@@6B@ (const QtAbstractEditorFactory<class QtDoublePropertyManager>::`vftable')
                  ??_7?$QtAbstractEditorFactory@VQtEnumPropertyManager@@@@6B@ (const QtAbstractEditorFactory<class QtEnumPropertyManager>::`vftable')
                  ??_7?$QtAbstractEditorFactory@VQtFontPropertyManager@@@@6B@ (const QtAbstractEditorFactory<class QtFontPropertyManager>::`vftable')
                  ??_7?$QtAbstractEditorFactory@VQtIntPropertyManager@@@@6B@ (const QtAbstractEditorFactory<class QtIntPropertyManager>::`vftable')
                  ??_7?$QtAbstractEditorFactory@VQtKeySequencePropertyManager@@@@6B@ (const QtAbstractEditorFactory<class QtKeySequencePropertyManager>::`vftable')
                  ??_7?$QtAbstractEditorFactory@VQtStringPropertyManager@@@@6B@ (const QtAbstractEditorFactory<class QtStringPropertyManager>::`vftable')
                  ??_7?$QtAbstractEditorFactory@VQtTimePropertyManager@@@@6B@ (const QtAbstractEditorFactory<class QtTimePropertyManager>::`vftable')
                  ??_7?$QtAbstractEditorFactory@VQtVariantPropertyManager@@@@6B@ (const QtAbstractEditorFactory<class QtVariantPropertyManager>::`vftable')
                  ??_7QtAbstractEditorFactoryBase@@6B@ (const QtAbstractEditorFactoryBase::`vftable')
                  ??_7QtAbstractPropertyBrowser@@6BQObject@@@ (const QtAbstractPropertyBrowser::`vftable'{for `QObject'})
                  ??_7QtAbstractPropertyBrowser@@6BQPaintDevice@@@ (const QtAbstractPropertyBrowser::`vftable'{for `QPaintDevice'})
                  ??_7QtAbstractPropertyManager@@6B@ (const QtAbstractPropertyManager::`vftable')
                  ??_7QtBoolPropertyManager@@6B@ (const QtBoolPropertyManager::`vftable')
                  ??_7QtButtonPropertyBrowser@@6BQObject@@@ (const QtButtonPropertyBrowser::`vftable'{for `QObject'})
                  ??_7QtButtonPropertyBrowser@@6BQPaintDevice@@@ (const QtButtonPropertyBrowser::`vftable'{for `QPaintDevice'})
                  ??_7QtCharEditorFactory@@6B@ (const QtCharEditorFactory::`vftable')
                  ??_7QtCharPropertyManager@@6B@ (const QtCharPropertyManager::`vftable')
                  ??_7QtCheckBoxFactory@@6B@ (const QtCheckBoxFactory::`vftable')
                  ??_7QtColorEditorFactory@@6B@ (const QtColorEditorFactory::`vftable')
                  ??_7QtColorPropertyManager@@6B@ (const QtColorPropertyManager::`vftable')
                  ??_7QtCursorEditorFactory@@6B@ (const QtCursorEditorFactory::`vftable')
                  ??_7QtCursorPropertyManager@@6B@ (const QtCursorPropertyManager::`vftable')
                  ??_7QtDateEditFactory@@6B@ (const QtDateEditFactory::`vftable')
                  ??_7QtDatePropertyManager@@6B@ (const QtDatePropertyManager::`vftable')
                  ??_7QtDateTimeEditFactory@@6B@ (const QtDateTimeEditFactory::`vftable')
                  ??_7QtDateTimePropertyManager@@6B@ (const QtDateTimePropertyManager::`vftable')
                  ??_7QtDoublePropertyManager@@6B@ (const QtDoublePropertyManager::`vftable')
                  ??_7QtDoubleSpinBoxFactory@@6B@ (const QtDoubleSpinBoxFactory::`vftable')
                  ??_7QtEnumEditorFactory@@6B@ (const QtEnumEditorFactory::`vftable')
                  ??_7QtEnumPropertyManager@@6B@ (const QtEnumPropertyManager::`vftable')
                  ??_7QtFlagPropertyManager@@6B@ (const QtFlagPropertyManager::`vftable')
                  ??_7QtFontEditorFactory@@6B@ (const QtFontEditorFactory::`vftable')
                  ??_7QtFontPropertyManager@@6B@ (const QtFontPropertyManager::`vftable')
                  ??_7QtGroupBoxPropertyBrowser@@6BQObject@@@ (const QtGroupBoxPropertyBrowser::`vftable'{for `QObject'})
                  ??_7QtGroupBoxPropertyBrowser@@6BQPaintDevice@@@ (const QtGroupBoxPropertyBrowser::`vftable'{for `QPaintDevice'})
                  ??_7QtGroupPropertyManager@@6B@ (const QtGroupPropertyManager::`vftable')
                  ??_7QtIntPropertyManager@@6B@ (const QtIntPropertyManager::`vftable')
                  ??_7QtKeySequenceEditorFactory@@6B@ (const QtKeySequenceEditorFactory::`vftable')
                  ??_7QtKeySequencePropertyManager@@6B@ (const QtKeySequencePropertyManager::`vftable')
                  ??_7QtLineEditFactory@@6B@ (const QtLineEditFactory::`vftable')
                  ??_7QtLocalePropertyManager@@6B@ (const QtLocalePropertyManager::`vftable')
                  ??_7QtPointFPropertyManager@@6B@ (const QtPointFPropertyManager::`vftable')
                  ??_7QtPointPropertyManager@@6B@ (const QtPointPropertyManager::`vftable')
                  ??_7QtProperty@@6B@ (const QtProperty::`vftable')
                  ??_7QtRectFPropertyManager@@6B@ (const QtRectFPropertyManager::`vftable')
                  ??_7QtRectPropertyManager@@6B@ (const QtRectPropertyManager::`vftable')
                  ??_7QtScrollBarFactory@@6B@ (const QtScrollBarFactory::`vftable')
                  ??_7QtSizeFPropertyManager@@6B@ (const QtSizeFPropertyManager::`vftable')
                  ??_7QtSizePolicyPropertyManager@@6B@ (const QtSizePolicyPropertyManager::`vftable')
                  ??_7QtSizePropertyManager@@6B@ (const QtSizePropertyManager::`vftable')
                  ??_7QtSliderFactory@@6B@ (const QtSliderFactory::`vftable')
                  ??_7QtSpinBoxFactory@@6B@ (const QtSpinBoxFactory::`vftable')
                  ??_7QtStringPropertyManager@@6B@ (const QtStringPropertyManager::`vftable')
                  ??_7QtTimeEditFactory@@6B@ (const QtTimeEditFactory::`vftable')
                  ??_7QtTimePropertyManager@@6B@ (const QtTimePropertyManager::`vftable')
                  ??_7QtTreePropertyBrowser@@6BQObject@@@ (const QtTreePropertyBrowser::`vftable'{for `QObject'})
                  ??_7QtTreePropertyBrowser@@6BQPaintDevice@@@ (const QtTreePropertyBrowser::`vftable'{for `QPaintDevice'})
                  ??_7QtVariantEditorFactory@@6B@ (const QtVariantEditorFactory::`vftable')
                  ??_7QtVariantProperty@@6B@ (const QtVariantProperty::`vftable')
                  ??_7QtVariantPropertyManager@@6B@ (const QtVariantPropertyManager::`vftable')
                  ??_FQtAbstractEditorFactoryBase@@QAEXXZ (public: void __thiscall QtAbstractEditorFactoryBase::`default constructor closure'(void))
                  ??_FQtAbstractPropertyBrowser@@QAEXXZ (public: void __thiscall QtAbstractPropertyBrowser::`default constructor closure'(void))
                  ??_FQtAbstractPropertyManager@@QAEXXZ (public: void __thiscall QtAbstractPropertyManager::`default constructor closure'(void))
                  ??_FQtBoolPropertyManager@@QAEXXZ (public: void __thiscall QtBoolPropertyManager::`default constructor closure'(void))
                  ??_FQtButtonPropertyBrowser@@QAEXXZ (public: void __thiscall QtButtonPropertyBrowser::`default constructor closure'(void))
                  ??_FQtCharEditorFactory@@QAEXXZ (public: void __thiscall QtCharEditorFactory::`default constructor closure'(void))
                  ??_FQtCharPropertyManager@@QAEXXZ (public: void __thiscall QtCharPropertyManager::`default constructor closure'(void))
                  ??_FQtCheckBoxFactory@@QAEXXZ (public: void __thiscall QtCheckBoxFactory::`default constructor closure'(void))
                  ??_FQtColorEditorFactory@@QAEXXZ (public: void __thiscall QtColorEditorFactory::`default constructor closure'(void))
                  ??_FQtColorPropertyManager@@QAEXXZ (public: void __thiscall QtColorPropertyManager::`default constructor closure'(void))
                  ??_FQtCursorEditorFactory@@QAEXXZ (public: void __thiscall QtCursorEditorFactory::`default constructor closure'(void))
                  ??_FQtCursorPropertyManager@@QAEXXZ (public: void __thiscall QtCursorPropertyManager::`default constructor closure'(void))
                  ??_FQtDateEditFactory@@QAEXXZ (public: void __thiscall QtDateEditFactory::`default constructor closure'(void))
                  ??_FQtDatePropertyManager@@QAEXXZ (public: void __thiscall QtDatePropertyManager::`default constructor closure'(void))
                  ??_FQtDateTimeEditFactory@@QAEXXZ (public: void __thiscall QtDateTimeEditFactory::`default constructor closure'(void))
                  ??_FQtDateTimePropertyManager@@QAEXXZ (public: void __thiscall QtDateTimePropertyManager::`default constructor closure'(void))
                  ??_FQtDoublePropertyManager@@QAEXXZ (public: void __thiscall QtDoublePropertyManager::`default constructor closure'(void))
                  ??_FQtDoubleSpinBoxFactory@@QAEXXZ (public: void __thiscall QtDoubleSpinBoxFactory::`default constructor closure'(void))
                  ??_FQtEnumEditorFactory@@QAEXXZ (public: void __thiscall QtEnumEditorFactory::`default constructor closure'(void))
                  ??_FQtEnumPropertyManager@@QAEXXZ (public: void __thiscall QtEnumPropertyManager::`default constructor closure'(void))
                  ??_FQtFlagPropertyManager@@QAEXXZ (public: void __thiscall QtFlagPropertyManager::`default constructor closure'(void))
                  ??_FQtFontEditorFactory@@QAEXXZ (public: void __thiscall QtFontEditorFactory::`default constructor closure'(void))
                  ??_FQtFontPropertyManager@@QAEXXZ (public: void __thiscall QtFontPropertyManager::`default constructor closure'(void))
                  ??_FQtGroupBoxPropertyBrowser@@QAEXXZ (public: void __thiscall QtGroupBoxPropertyBrowser::`default constructor closure'(void))
                  ??_FQtGroupPropertyManager@@QAEXXZ (public: void __thiscall QtGroupPropertyManager::`default constructor closure'(void))
                  ??_FQtIntPropertyManager@@QAEXXZ (public: void __thiscall QtIntPropertyManager::`default constructor closure'(void))
                  ??_FQtKeySequenceEditorFactory@@QAEXXZ (public: void __thiscall QtKeySequenceEditorFactory::`default constructor closure'(void))
                  ??_FQtKeySequencePropertyManager@@QAEXXZ (public: void __thiscall QtKeySequencePropertyManager::`default constructor closure'(void))
                  ??_FQtLineEditFactory@@QAEXXZ (public: void __thiscall QtLineEditFactory::`default constructor closure'(void))
                  ??_FQtLocalePropertyManager@@QAEXXZ (public: void __thiscall QtLocalePropertyManager::`default constructor closure'(void))
                  ??_FQtPointFPropertyManager@@QAEXXZ (public: void __thiscall QtPointFPropertyManager::`default constructor closure'(void))
                  ??_FQtPointPropertyManager@@QAEXXZ (public: void __thiscall QtPointPropertyManager::`default constructor closure'(void))
                  ??_FQtRectFPropertyManager@@QAEXXZ (public: void __thiscall QtRectFPropertyManager::`default constructor closure'(void))
                  ??_FQtRectPropertyManager@@QAEXXZ (public: void __thiscall QtRectPropertyManager::`default constructor closure'(void))
                  ??_FQtScrollBarFactory@@QAEXXZ (public: void __thiscall QtScrollBarFactory::`default constructor closure'(void))
                  ??_FQtSizeFPropertyManager@@QAEXXZ (public: void __thiscall QtSizeFPropertyManager::`default constructor closure'(void))
                  ??_FQtSizePolicyPropertyManager@@QAEXXZ (public: void __thiscall QtSizePolicyPropertyManager::`default constructor closure'(void))
                  ??_FQtSizePropertyManager@@QAEXXZ (public: void __thiscall QtSizePropertyManager::`default constructor closure'(void))
                  ??_FQtSliderFactory@@QAEXXZ (public: void __thiscall QtSliderFactory::`default constructor closure'(void))
                  ??_FQtSpinBoxFactory@@QAEXXZ (public: void __thiscall QtSpinBoxFactory::`default constructor closure'(void))
                  ??_FQtStringPropertyManager@@QAEXXZ (public: void __thiscall QtStringPropertyManager::`default constructor closure'(void))
                  ??_FQtTimeEditFactory@@QAEXXZ (public: void __thiscall QtTimeEditFactory::`default constructor closure'(void))
                  ??_FQtTimePropertyManager@@QAEXXZ (public: void __thiscall QtTimePropertyManager::`default constructor closure'(void))
                  ??_FQtTreePropertyBrowser@@QAEXXZ (public: void __thiscall QtTreePropertyBrowser::`default constructor closure'(void))
                  ??_FQtVariantEditorFactory@@QAEXXZ (public: void __thiscall QtVariantEditorFactory::`default constructor closure'(void))
                  ??_FQtVariantPropertyManager@@QAEXXZ (public: void __thiscall QtVariantPropertyManager::`default constructor closure'(void))
                  ?addFactory@QtAbstractPropertyBrowser@@AAE_NPAVQtAbstractPropertyManager@@PAVQtAbstractEditorFactoryBase@@@Z (private: bool __thiscall QtAbstractPropertyBrowser::addFactory(class QtAbstractPropertyManager *,class QtAbstractEditorFactoryBase *))
                  ?addProperty@QtAbstractPropertyBrowser@@QAEPAVQtBrowserItem@@PAVQtProperty@@@Z (public: class QtBrowserItem * __thiscall QtAbstractPropertyBrowser::addProperty(class QtProperty *))
                  ?addProperty@QtAbstractPropertyManager@@QAEPAVQtProperty@@ABVQString@@@Z (public: class QtProperty * __thiscall QtAbstractPropertyManager::addProperty(class QString const &))
                  ?addProperty@QtVariantPropertyManager@@UAEPAVQtVariantProperty@@HABVQString@@@Z (public: virtual class QtVariantProperty * __thiscall QtVariantPropertyManager::addProperty(int,class QString const &))
                  ?addPropertyManager@?$QtAbstractEditorFactory@VQtBoolPropertyManager@@@@QAEXPAVQtBoolPropertyManager@@@Z (public: void __thiscall QtAbstractEditorFactory<class QtBoolPropertyManager>::addPropertyManager(class QtBoolPropertyManager *))
                  ?addPropertyManager@?$QtAbstractEditorFactory@VQtCharPropertyManager@@@@QAEXPAVQtCharPropertyManager@@@Z (public: void __thiscall QtAbstractEditorFactory<class QtCharPropertyManager>::addPropertyManager(class QtCharPropertyManager *))
                  ?addPropertyManager@?$QtAbstractEditorFactory@VQtColorPropertyManager@@@@QAEXPAVQtColorPropertyManager@@@Z (public: void __thiscall QtAbstractEditorFactory<class QtColorPropertyManager>::addPropertyManager(class QtColorPropertyManager *))
                  ?addPropertyManager@?$QtAbstractEditorFactory@VQtCursorPropertyManager@@@@QAEXPAVQtCursorPropertyManager@@@Z (public: void __thiscall QtAbstractEditorFactory<class QtCursorPropertyManager>::addPropertyManager(class QtCursorPropertyManager *))
                  ?addPropertyManager@?$QtAbstractEditorFactory@VQtDatePropertyManager@@@@QAEXPAVQtDatePropertyManager@@@Z (public: void __thiscall QtAbstractEditorFactory<class QtDatePropertyManager>::addPropertyManager(class QtDatePropertyManager *))
                  ?addPropertyManager@?$QtAbstractEditorFactory@VQtDateTimePropertyManager@@@@QAEXPAVQtDateTimePropertyManager@@@Z (public: void __thiscall QtAbstractEditorFactory<class QtDateTimePropertyManager>::addPropertyManager(class QtDateTimePropertyManager *))
                  ?addPropertyManager@?$QtAbstractEditorFactory@VQtDoublePropertyManager@@@@QAEXPAVQtDoublePropertyManager@@@Z (public: void __thiscall QtAbstractEditorFactory<class QtDoublePropertyManager>::addPropertyManager(class QtDoublePropertyManager *))
                  ?addPropertyManager@?$QtAbstractEditorFactory@VQtEnumPropertyManager@@@@QAEXPAVQtEnumPropertyManager@@@Z (public: void __thiscall QtAbstractEditorFactory<class QtEnumPropertyManager>::addPropertyManager(class QtEnumPropertyManager *))
                  ?addPropertyManager@?$QtAbstractEditorFactory@VQtFontPropertyManager@@@@QAEXPAVQtFontPropertyManager@@@Z (public: void __thiscall QtAbstractEditorFactory<class QtFontPropertyManager>::addPropertyManager(class QtFontPropertyManager *))
                  ?addPropertyManager@?$QtAbstractEditorFactory@VQtIntPropertyManager@@@@QAEXPAVQtIntPropertyManager@@@Z (public: void __thiscall QtAbstractEditorFactory<class QtIntPropertyManager>::addPropertyManager(class QtIntPropertyManager *))
                  ?addPropertyManager@?$QtAbstractEditorFactory@VQtKeySequencePropertyManager@@@@QAEXPAVQtKeySequencePropertyManager@@@Z (public: void __thiscall QtAbstractEditorFactory<class QtKeySequencePropertyManager>::addPropertyManager(class QtKeySequencePropertyManager *))
                  ?addPropertyManager@?$QtAbstractEditorFactory@VQtStringPropertyManager@@@@QAEXPAVQtStringPropertyManager@@@Z (public: void __thiscall QtAbstractEditorFactory<class QtStringPropertyManager>::addPropertyManager(class QtStringPropertyManager *))
                  ?addPropertyManager@?$QtAbstractEditorFactory@VQtTimePropertyManager@@@@QAEXPAVQtTimePropertyManager@@@Z (public: void __thiscall QtAbstractEditorFactory<class QtTimePropertyManager>::addPropertyManager(class QtTimePropertyManager *))
                  ?addPropertyManager@?$QtAbstractEditorFactory@VQtVariantPropertyManager@@@@QAEXPAVQtVariantPropertyManager@@@Z (public: void __thiscall QtAbstractEditorFactory<class QtVariantPropertyManager>::addPropertyManager(class QtVariantPropertyManager *))
                  ?addSubProperty@QtProperty@@QAEXPAV1@@Z (public: void __thiscall QtProperty::addSubProperty(class QtProperty *))
                  ?alternatingRowColors@QtTreePropertyBrowser@@QBE_NXZ (public: bool __thiscall QtTreePropertyBrowser::alternatingRowColors(void)const )
                  ?attributeChanged@QtVariantPropertyManager@@IAEXPAVQtProperty@@ABVQString@@ABVQVariant@@@Z (protected: void __thiscall QtVariantPropertyManager::attributeChanged(class QtProperty *,class QString const &,class QVariant const &))
                  ?attributeType@QtVariantPropertyManager@@UBEHHABVQString@@@Z (public: virtual int __thiscall QtVariantPropertyManager::attributeType(int,class QString const &)const )
                  ?attributeValue@QtVariantProperty@@QBE?AVQVariant@@ABVQString@@@Z (public: class QVariant __thiscall QtVariantProperty::attributeValue(class QString const &)const )
                  ?attributeValue@QtVariantPropertyManager@@UBE?AVQVariant@@PBVQtProperty@@ABVQString@@@Z (public: virtual class QVariant __thiscall QtVariantPropertyManager::attributeValue(class QtProperty const *,class QString const &)const )
                  ?attributes@QtVariantPropertyManager@@UBE?AVQStringList@@H@Z (public: virtual class QStringList __thiscall QtVariantPropertyManager::attributes(int)const )
                  ?backgroundColor@QtTreePropertyBrowser@@QBE?AVQColor@@PAVQtBrowserItem@@@Z (public: class QColor __thiscall QtTreePropertyBrowser::backgroundColor(class QtBrowserItem *)const )
                  ?breakConnection@?$QtAbstractEditorFactory@VQtBoolPropertyManager@@@@EAEXPAVQtAbstractPropertyManager@@@Z (private: virtual void __thiscall QtAbstractEditorFactory<class QtBoolPropertyManager>::breakConnection(class QtAbstractPropertyManager *))
                  ?breakConnection@?$QtAbstractEditorFactory@VQtCharPropertyManager@@@@EAEXPAVQtAbstractPropertyManager@@@Z (private: virtual void __thiscall QtAbstractEditorFactory<class QtCharPropertyManager>::breakConnection(class QtAbstractPropertyManager *))
                  ?breakConnection@?$QtAbstractEditorFactory@VQtColorPropertyManager@@@@EAEXPAVQtAbstractPropertyManager@@@Z (private: virtual void __thiscall QtAbstractEditorFactory<class QtColorPropertyManager>::breakConnection(class QtAbstractPropertyManager *))
                  ?breakConnection@?$QtAbstractEditorFactory@VQtCursorPropertyManager@@@@EAEXPAVQtAbstractPropertyManager@@@Z (private: virtual void __thiscall QtAbstractEditorFactory<class QtCursorPropertyManager>::breakConnection(class QtAbstractPropertyManager *))
                  ?breakConnection@?$QtAbstractEditorFactory@VQtDatePropertyManager@@@@EAEXPAVQtAbstractPropertyManager@@@Z (private: virtual void __thiscall QtAbstractEditorFactory<class QtDatePropertyManager>::breakConnection(class QtAbstractPropertyManager *))
                  ?breakConnection@?$QtAbstractEditorFactory@VQtDateTimePropertyManager@@@@EAEXPAVQtAbstractPropertyManager@@@Z (private: virtual void __thiscall QtAbstractEditorFactory<class QtDateTimePropertyManager>::breakConnection(class QtAbstractPropertyManager *))
                  ?breakConnection@?$QtAbstractEditorFactory@VQtDoublePropertyManager@@@@EAEXPAVQtAbstractPropertyManager@@@Z (private: virtual void __thiscall QtAbstractEditorFactory<class QtDoublePropertyManager>::breakConnection(class QtAbstractPropertyManager *))
                  ?breakConnection@?$QtAbstractEditorFactory@VQtEnumPropertyManager@@@@EAEXPAVQtAbstractPropertyManager@@@Z (private: virtual void __thiscall QtAbstractEditorFactory<class QtEnumPropertyManager>::breakConnection(class QtAbstractPropertyManager *))
                  ?breakConnection@?$QtAbstractEditorFactory@VQtFontPropertyManager@@@@EAEXPAVQtAbstractPropertyManager@@@Z (private: virtual void __thiscall QtAbstractEditorFactory<class QtFontPropertyManager>::breakConnection(class QtAbstractPropertyManager *))
                  ?breakConnection@?$QtAbstractEditorFactory@VQtIntPropertyManager@@@@EAEXPAVQtAbstractPropertyManager@@@Z (private: virtual void __thiscall QtAbstractEditorFactory<class QtIntPropertyManager>::breakConnection(class QtAbstractPropertyManager *))
                  ?breakConnection@?$QtAbstractEditorFactory@VQtKeySequencePropertyManager@@@@EAEXPAVQtAbstractPropertyManager@@@Z (private: virtual void __thiscall QtAbstractEditorFactory<class QtKeySequencePropertyManager>::breakConnection(class QtAbstractPropertyManager *))
                  ?breakConnection@?$QtAbstractEditorFactory@VQtStringPropertyManager@@@@EAEXPAVQtAbstractPropertyManager@@@Z (private: virtual void __thiscall QtAbstractEditorFactory<class QtStringPropertyManager>::breakConnection(class QtAbstractPropertyManager *))
                  ?breakConnection@?$QtAbstractEditorFactory@VQtTimePropertyManager@@@@EAEXPAVQtAbstractPropertyManager@@@Z (private: virtual void __thiscall QtAbstractEditorFactory<class QtTimePropertyManager>::breakConnection(class QtAbstractPropertyManager *))
                  ?breakConnection@?$QtAbstractEditorFactory@VQtVariantPropertyManager@@@@EAEXPAVQtAbstractPropertyManager@@@Z (private: virtual void __thiscall QtAbstractEditorFactory<class QtVariantPropertyManager>::breakConnection(class QtAbstractPropertyManager *))
                  ?browser@QtBrowserItem@@QBEPAVQtAbstractPropertyBrowser@@XZ (public: class QtAbstractPropertyBrowser * __thiscall QtBrowserItem::browser(void)const )
                  ?calculatedBackgroundColor@QtTreePropertyBrowser@@QBE?AVQColor@@PAVQtBrowserItem@@@Z (public: class QColor __thiscall QtTreePropertyBrowser::calculatedBackgroundColor(class QtBrowserItem *)const )
                  ?children@QtBrowserItem@@QBE?AV?$QList@PAVQtBrowserItem@@@@XZ (public: class QList<class QtBrowserItem *> __thiscall QtBrowserItem::children(void)const )
                  ?clear@QtAbstractPropertyBrowser@@QAEXXZ (public: void __thiscall QtAbstractPropertyBrowser::clear(void))
                  ?clear@QtAbstractPropertyManager@@QBEXXZ (public: void __thiscall QtAbstractPropertyManager::clear(void)const )
                  ?collapsed@QtButtonPropertyBrowser@@IAEXPAVQtBrowserItem@@@Z (protected: void __thiscall QtButtonPropertyBrowser::collapsed(class QtBrowserItem *))
                  ?collapsed@QtTreePropertyBrowser@@IAEXPAVQtBrowserItem@@@Z (protected: void __thiscall QtTreePropertyBrowser::collapsed(class QtBrowserItem *))
                  ?connectPropertyManager@QtCharEditorFactory@@MAEXPAVQtCharPropertyManager@@@Z (protected: virtual void __thiscall QtCharEditorFactory::connectPropertyManager(class QtCharPropertyManager *))
                  ?connectPropertyManager@QtCheckBoxFactory@@MAEXPAVQtBoolPropertyManager@@@Z (protected: virtual void __thiscall QtCheckBoxFactory::connectPropertyManager(class QtBoolPropertyManager *))
                  ?connectPropertyManager@QtColorEditorFactory@@MAEXPAVQtColorPropertyManager@@@Z (protected: virtual void __thiscall QtColorEditorFactory::connectPropertyManager(class QtColorPropertyManager *))
                  ?connectPropertyManager@QtCursorEditorFactory@@MAEXPAVQtCursorPropertyManager@@@Z (protected: virtual void __thiscall QtCursorEditorFactory::connectPropertyManager(class QtCursorPropertyManager *))
                  ?connectPropertyManager@QtDateEditFactory@@MAEXPAVQtDatePropertyManager@@@Z (protected: virtual void __thiscall QtDateEditFactory::connectPropertyManager(class QtDatePropertyManager *))
                  ?connectPropertyManager@QtDateTimeEditFactory@@MAEXPAVQtDateTimePropertyManager@@@Z (protected: virtual void __thiscall QtDateTimeEditFactory::connectPropertyManager(class QtDateTimePropertyManager *))
                  ?connectPropertyManager@QtDoubleSpinBoxFactory@@MAEXPAVQtDoublePropertyManager@@@Z (protected: virtual void __thiscall QtDoubleSpinBoxFactory::connectPropertyManager(class QtDoublePropertyManager *))
                  ?connectPropertyManager@QtEnumEditorFactory@@MAEXPAVQtEnumPropertyManager@@@Z (protected: virtual void __thiscall QtEnumEditorFactory::connectPropertyManager(class QtEnumPropertyManager *))
                  ?connectPropertyManager@QtFontEditorFactory@@MAEXPAVQtFontPropertyManager@@@Z (protected: virtual void __thiscall QtFontEditorFactory::connectPropertyManager(class QtFontPropertyManager *))
                  ?connectPropertyManager@QtKeySequenceEditorFactory@@MAEXPAVQtKeySequencePropertyManager@@@Z (protected: virtual void __thiscall QtKeySequenceEditorFactory::connectPropertyManager(class QtKeySequencePropertyManager *))
                  ?connectPropertyManager@QtLineEditFactory@@MAEXPAVQtStringPropertyManager@@@Z (protected: virtual void __thiscall QtLineEditFactory::connectPropertyManager(class QtStringPropertyManager *))
                  ?connectPropertyManager@QtScrollBarFactory@@MAEXPAVQtIntPropertyManager@@@Z (protected: virtual void __thiscall QtScrollBarFactory::connectPropertyManager(class QtIntPropertyManager *))
                  ?connectPropertyManager@QtSliderFactory@@MAEXPAVQtIntPropertyManager@@@Z (protected: virtual void __thiscall QtSliderFactory::connectPropertyManager(class QtIntPropertyManager *))
                  ?connectPropertyManager@QtSpinBoxFactory@@MAEXPAVQtIntPropertyManager@@@Z (protected: virtual void __thiscall QtSpinBoxFactory::connectPropertyManager(class QtIntPropertyManager *))
                  ?connectPropertyManager@QtTimeEditFactory@@MAEXPAVQtTimePropertyManager@@@Z (protected: virtual void __thiscall QtTimeEditFactory::connectPropertyManager(class QtTimePropertyManager *))
                  ?connectPropertyManager@QtVariantEditorFactory@@MAEXPAVQtVariantPropertyManager@@@Z (protected: virtual void __thiscall QtVariantEditorFactory::connectPropertyManager(class QtVariantPropertyManager *))
                  ?constraint@QtRectFPropertyManager@@QBE?AVQRectF@@PBVQtProperty@@@Z (public: class QRectF __thiscall QtRectFPropertyManager::constraint(class QtProperty const *)const )
                  ?constraint@QtRectPropertyManager@@QBE?AVQRect@@PBVQtProperty@@@Z (public: class QRect __thiscall QtRectPropertyManager::constraint(class QtProperty const *)const )
                  ?constraintChanged@QtRectFPropertyManager@@IAEXPAVQtProperty@@ABVQRectF@@@Z (protected: void __thiscall QtRectFPropertyManager::constraintChanged(class QtProperty *,class QRectF const &))
                  ?constraintChanged@QtRectPropertyManager@@IAEXPAVQtProperty@@ABVQRect@@@Z (protected: void __thiscall QtRectPropertyManager::constraintChanged(class QtProperty *,class QRect const &))
                  ?createEditor@?$QtAbstractEditorFactory@VQtBoolPropertyManager@@@@UAEPAVQWidget@@PAVQtProperty@@PAV2@@Z (public: virtual class QWidget * __thiscall QtAbstractEditorFactory<class QtBoolPropertyManager>::createEditor(class QtProperty *,class QWidget *))
                  ?createEditor@?$QtAbstractEditorFactory@VQtCharPropertyManager@@@@UAEPAVQWidget@@PAVQtProperty@@PAV2@@Z (public: virtual class QWidget * __thiscall QtAbstractEditorFactory<class QtCharPropertyManager>::createEditor(class QtProperty *,class QWidget *))
                  ?createEditor@?$QtAbstractEditorFactory@VQtColorPropertyManager@@@@UAEPAVQWidget@@PAVQtProperty@@PAV2@@Z (public: virtual class QWidget * __thiscall QtAbstractEditorFactory<class QtColorPropertyManager>::createEditor(class QtProperty *,class QWidget *))
                  ?createEditor@?$QtAbstractEditorFactory@VQtCursorPropertyManager@@@@UAEPAVQWidget@@PAVQtProperty@@PAV2@@Z (public: virtual class QWidget * __thiscall QtAbstractEditorFactory<class QtCursorPropertyManager>::createEditor(class QtProperty *,class QWidget *))
                  ?createEditor@?$QtAbstractEditorFactory@VQtDatePropertyManager@@@@UAEPAVQWidget@@PAVQtProperty@@PAV2@@Z (public: virtual class QWidget * __thiscall QtAbstractEditorFactory<class QtDatePropertyManager>::createEditor(class QtProperty *,class QWidget *))
                  ?createEditor@?$QtAbstractEditorFactory@VQtDateTimePropertyManager@@@@UAEPAVQWidget@@PAVQtProperty@@PAV2@@Z (public: virtual class QWidget * __thiscall QtAbstractEditorFactory<class QtDateTimePropertyManager>::createEditor(class QtProperty *,class QWidget *))
                  ?createEditor@?$QtAbstractEditorFactory@VQtDoublePropertyManager@@@@UAEPAVQWidget@@PAVQtProperty@@PAV2@@Z (public: virtual class QWidget * __thiscall QtAbstractEditorFactory<class QtDoublePropertyManager>::createEditor(class QtProperty *,class QWidget *))
                  ?createEditor@?$QtAbstractEditorFactory@VQtEnumPropertyManager@@@@UAEPAVQWidget@@PAVQtProperty@@PAV2@@Z (public: virtual class QWidget * __thiscall QtAbstractEditorFactory<class QtEnumPropertyManager>::createEditor(class QtProperty *,class QWidget *))
                  ?createEditor@?$QtAbstractEditorFactory@VQtFontPropertyManager@@@@UAEPAVQWidget@@PAVQtProperty@@PAV2@@Z (public: virtual class QWidget * __thiscall QtAbstractEditorFactory<class QtFontPropertyManager>::createEditor(class QtProperty *,class QWidget *))
                  ?createEditor@?$QtAbstractEditorFactory@VQtIntPropertyManager@@@@UAEPAVQWidget@@PAVQtProperty@@PAV2@@Z (public: virtual class QWidget * __thiscall QtAbstractEditorFactory<class QtIntPropertyManager>::createEditor(class QtProperty *,class QWidget *))
                  ?createEditor@?$QtAbstractEditorFactory@VQtKeySequencePropertyManager@@@@UAEPAVQWidget@@PAVQtProperty@@PAV2@@Z (public: virtual class QWidget * __thiscall QtAbstractEditorFactory<class QtKeySequencePropertyManager>::createEditor(class QtProperty *,class QWidget *))
                  ?createEditor@?$QtAbstractEditorFactory@VQtStringPropertyManager@@@@UAEPAVQWidget@@PAVQtProperty@@PAV2@@Z (public: virtual class QWidget * __thiscall QtAbstractEditorFactory<class QtStringPropertyManager>::createEditor(class QtProperty *,class QWidget *))
                  ?createEditor@?$QtAbstractEditorFactory@VQtTimePropertyManager@@@@UAEPAVQWidget@@PAVQtProperty@@PAV2@@Z (public: virtual class QWidget * __thiscall QtAbstractEditorFactory<class QtTimePropertyManager>::createEditor(class QtProperty *,class QWidget *))
                  ?createEditor@?$QtAbstractEditorFactory@VQtVariantPropertyManager@@@@UAEPAVQWidget@@PAVQtProperty@@PAV2@@Z (public: virtual class QWidget * __thiscall QtAbstractEditorFactory<class QtVariantPropertyManager>::createEditor(class QtProperty *,class QWidget *))
                  ?createEditor@QtAbstractPropertyBrowser@@MAEPAVQWidget@@PAVQtProperty@@PAV2@@Z (protected: virtual class QWidget * __thiscall QtAbstractPropertyBrowser::createEditor(class QtProperty *,class QWidget *))
                  ?createEditor@QtCharEditorFactory@@MAEPAVQWidget@@PAVQtCharPropertyManager@@PAVQtProperty@@PAV2@@Z (protected: virtual class QWidget * __thiscall QtCharEditorFactory::createEditor(class QtCharPropertyManager *,class QtProperty *,class QWidget *))
                  ?createEditor@QtCheckBoxFactory@@MAEPAVQWidget@@PAVQtBoolPropertyManager@@PAVQtProperty@@PAV2@@Z (protected: virtual class QWidget * __thiscall QtCheckBoxFactory::createEditor(class QtBoolPropertyManager *,class QtProperty *,class QWidget *))
                  ?createEditor@QtColorEditorFactory@@MAEPAVQWidget@@PAVQtColorPropertyManager@@PAVQtProperty@@PAV2@@Z (protected: virtual class QWidget * __thiscall QtColorEditorFactory::createEditor(class QtColorPropertyManager *,class QtProperty *,class QWidget *))
                  ?createEditor@QtCursorEditorFactory@@MAEPAVQWidget@@PAVQtCursorPropertyManager@@PAVQtProperty@@PAV2@@Z (protected: virtual class QWidget * __thiscall QtCursorEditorFactory::createEditor(class QtCursorPropertyManager *,class QtProperty *,class QWidget *))
                  ?createEditor@QtDateEditFactory@@MAEPAVQWidget@@PAVQtDatePropertyManager@@PAVQtProperty@@PAV2@@Z (protected: virtual class QWidget * __thiscall QtDateEditFactory::createEditor(class QtDatePropertyManager *,class QtProperty *,class QWidget *))
                  ?createEditor@QtDateTimeEditFactory@@MAEPAVQWidget@@PAVQtDateTimePropertyManager@@PAVQtProperty@@PAV2@@Z (protected: virtual class QWidget * __thiscall QtDateTimeEditFactory::createEditor(class QtDateTimePropertyManager *,class QtProperty *,class QWidget *))
                  ?createEditor@QtDoubleSpinBoxFactory@@MAEPAVQWidget@@PAVQtDoublePropertyManager@@PAVQtProperty@@PAV2@@Z (protected: virtual class QWidget * __thiscall QtDoubleSpinBoxFactory::createEditor(class QtDoublePropertyManager *,class QtProperty *,class QWidget *))
                  ?createEditor@QtEnumEditorFactory@@MAEPAVQWidget@@PAVQtEnumPropertyManager@@PAVQtProperty@@PAV2@@Z (protected: virtual class QWidget * __thiscall QtEnumEditorFactory::createEditor(class QtEnumPropertyManager *,class QtProperty *,class QWidget *))
                  ?createEditor@QtFontEditorFactory@@MAEPAVQWidget@@PAVQtFontPropertyManager@@PAVQtProperty@@PAV2@@Z (protected: virtual class QWidget * __thiscall QtFontEditorFactory::createEditor(class QtFontPropertyManager *,class QtProperty *,class QWidget *))
                  ?createEditor@QtKeySequenceEditorFactory@@MAEPAVQWidget@@PAVQtKeySequencePropertyManager@@PAVQtProperty@@PAV2@@Z (protected: virtual class QWidget * __thiscall QtKeySequenceEditorFactory::createEditor(class QtKeySequencePropertyManager *,class QtProperty *,class QWidget *))
                  ?createEditor@QtLineEditFactory@@MAEPAVQWidget@@PAVQtStringPropertyManager@@PAVQtProperty@@PAV2@@Z (protected: virtual class QWidget * __thiscall QtLineEditFactory::createEditor(class QtStringPropertyManager *,class QtProperty *,class QWidget *))
                  ?createEditor@QtScrollBarFactory@@MAEPAVQWidget@@PAVQtIntPropertyManager@@PAVQtProperty@@PAV2@@Z (protected: virtual class QWidget * __thiscall QtScrollBarFactory::createEditor(class QtIntPropertyManager *,class QtProperty *,class QWidget *))
                  ?createEditor@QtSliderFactory@@MAEPAVQWidget@@PAVQtIntPropertyManager@@PAVQtProperty@@PAV2@@Z (protected: virtual class QWidget * __thiscall QtSliderFactory::createEditor(class QtIntPropertyManager *,class QtProperty *,class QWidget *))
                  ?createEditor@QtSpinBoxFactory@@MAEPAVQWidget@@PAVQtIntPropertyManager@@PAVQtProperty@@PAV2@@Z (protected: virtual class QWidget * __thiscall QtSpinBoxFactory::createEditor(class QtIntPropertyManager *,class QtProperty *,class QWidget *))
                  ?createEditor@QtTimeEditFactory@@MAEPAVQWidget@@PAVQtTimePropertyManager@@PAVQtProperty@@PAV2@@Z (protected: virtual class QWidget * __thiscall QtTimeEditFactory::createEditor(class QtTimePropertyManager *,class QtProperty *,class QWidget *))
                  ?createEditor@QtVariantEditorFactory@@MAEPAVQWidget@@PAVQtVariantPropertyManager@@PAVQtProperty@@PAV2@@Z (protected: virtual class QWidget * __thiscall QtVariantEditorFactory::createEditor(class QtVariantPropertyManager *,class QtProperty *,class QWidget *))
                  ?createProperty@QtAbstractPropertyManager@@MAEPAVQtProperty@@XZ (protected: virtual class QtProperty * __thiscall QtAbstractPropertyManager::createProperty(void))
                  ?createProperty@QtVariantPropertyManager@@MAEPAVQtProperty@@XZ (protected: virtual class QtProperty * __thiscall QtVariantPropertyManager::createProperty(void))
                  ?currentItem@QtAbstractPropertyBrowser@@QBEPAVQtBrowserItem@@XZ (public: class QtBrowserItem * __thiscall QtAbstractPropertyBrowser::currentItem(void)const )
                  ?currentItemChanged@QtAbstractPropertyBrowser@@IAEXPAVQtBrowserItem@@@Z (protected: void __thiscall QtAbstractPropertyBrowser::currentItemChanged(class QtBrowserItem *))
                  ?d_func@QtAbstractPropertyBrowser@@AAEPAVQtAbstractPropertyBrowserPrivate@@XZ (private: class QtAbstractPropertyBrowserPrivate * __thiscall QtAbstractPropertyBrowser::d_func(void))
                  ?d_func@QtAbstractPropertyBrowser@@ABEPBVQtAbstractPropertyBrowserPrivate@@XZ (private: class QtAbstractPropertyBrowserPrivate const * __thiscall QtAbstractPropertyBrowser::d_func(void)const )
                  ?d_func@QtAbstractPropertyManager@@AAEPAVQtAbstractPropertyManagerPrivate@@XZ (private: class QtAbstractPropertyManagerPrivate * __thiscall QtAbstractPropertyManager::d_func(void))
                  ?d_func@QtAbstractPropertyManager@@ABEPBVQtAbstractPropertyManagerPrivate@@XZ (private: class QtAbstractPropertyManagerPrivate const * __thiscall QtAbstractPropertyManager::d_func(void)const )
                  ?d_func@QtBoolPropertyManager@@AAEPAVQtBoolPropertyManagerPrivate@@XZ (private: class QtBoolPropertyManagerPrivate * __thiscall QtBoolPropertyManager::d_func(void))
                  ?d_func@QtBoolPropertyManager@@ABEPBVQtBoolPropertyManagerPrivate@@XZ (private: class QtBoolPropertyManagerPrivate const * __thiscall QtBoolPropertyManager::d_func(void)const )
                  ?d_func@QtButtonPropertyBrowser@@AAEPAVQtButtonPropertyBrowserPrivate@@XZ (private: class QtButtonPropertyBrowserPrivate * __thiscall QtButtonPropertyBrowser::d_func(void))
                  ?d_func@QtButtonPropertyBrowser@@ABEPBVQtButtonPropertyBrowserPrivate@@XZ (private: class QtButtonPropertyBrowserPrivate const * __thiscall QtButtonPropertyBrowser::d_func(void)const )
                  ?d_func@QtCharEditorFactory@@AAEPAVQtCharEditorFactoryPrivate@@XZ (private: class QtCharEditorFactoryPrivate * __thiscall QtCharEditorFactory::d_func(void))
                  ?d_func@QtCharEditorFactory@@ABEPBVQtCharEditorFactoryPrivate@@XZ (private: class QtCharEditorFactoryPrivate const * __thiscall QtCharEditorFactory::d_func(void)const )
                  ?d_func@QtCharPropertyManager@@AAEPAVQtCharPropertyManagerPrivate@@XZ (private: class QtCharPropertyManagerPrivate * __thiscall QtCharPropertyManager::d_func(void))
                  ?d_func@QtCharPropertyManager@@ABEPBVQtCharPropertyManagerPrivate@@XZ (private: class QtCharPropertyManagerPrivate const * __thiscall QtCharPropertyManager::d_func(void)const )
                  ?d_func@QtCheckBoxFactory@@AAEPAVQtCheckBoxFactoryPrivate@@XZ (private: class QtCheckBoxFactoryPrivate * __thiscall QtCheckBoxFactory::d_func(void))
                  ?d_func@QtCheckBoxFactory@@ABEPBVQtCheckBoxFactoryPrivate@@XZ (private: class QtCheckBoxFactoryPrivate const * __thiscall QtCheckBoxFactory::d_func(void)const )
                  ?d_func@QtColorEditorFactory@@AAEPAVQtColorEditorFactoryPrivate@@XZ (private: class QtColorEditorFactoryPrivate * __thiscall QtColorEditorFactory::d_func(void))
                  ?d_func@QtColorEditorFactory@@ABEPBVQtColorEditorFactoryPrivate@@XZ (private: class QtColorEditorFactoryPrivate const * __thiscall QtColorEditorFactory::d_func(void)const )
                  ?d_func@QtColorPropertyManager@@AAEPAVQtColorPropertyManagerPrivate@@XZ (private: class QtColorPropertyManagerPrivate * __thiscall QtColorPropertyManager::d_func(void))
                  ?d_func@QtColorPropertyManager@@ABEPBVQtColorPropertyManagerPrivate@@XZ (private: class QtColorPropertyManagerPrivate const * __thiscall QtColorPropertyManager::d_func(void)const )
                  ?d_func@QtCursorEditorFactory@@AAEPAVQtCursorEditorFactoryPrivate@@XZ (private: class QtCursorEditorFactoryPrivate * __thiscall QtCursorEditorFactory::d_func(void))
                  ?d_func@QtCursorEditorFactory@@ABEPBVQtCursorEditorFactoryPrivate@@XZ (private: class QtCursorEditorFactoryPrivate const * __thiscall QtCursorEditorFactory::d_func(void)const )
                  ?d_func@QtCursorPropertyManager@@AAEPAVQtCursorPropertyManagerPrivate@@XZ (private: class QtCursorPropertyManagerPrivate * __thiscall QtCursorPropertyManager::d_func(void))
                  ?d_func@QtCursorPropertyManager@@ABEPBVQtCursorPropertyManagerPrivate@@XZ (private: class QtCursorPropertyManagerPrivate const * __thiscall QtCursorPropertyManager::d_func(void)const )
                  ?d_func@QtDateEditFactory@@AAEPAVQtDateEditFactoryPrivate@@XZ (private: class QtDateEditFactoryPrivate * __thiscall QtDateEditFactory::d_func(void))
                  ?d_func@QtDateEditFactory@@ABEPBVQtDateEditFactoryPrivate@@XZ (private: class QtDateEditFactoryPrivate const * __thiscall QtDateEditFactory::d_func(void)const )
                  ?d_func@QtDatePropertyManager@@AAEPAVQtDatePropertyManagerPrivate@@XZ (private: class QtDatePropertyManagerPrivate * __thiscall QtDatePropertyManager::d_func(void))
                  ?d_func@QtDatePropertyManager@@ABEPBVQtDatePropertyManagerPrivate@@XZ (private: class QtDatePropertyManagerPrivate const * __thiscall QtDatePropertyManager::d_func(void)const )
                  ?d_func@QtDateTimeEditFactory@@AAEPAVQtDateTimeEditFactoryPrivate@@XZ (private: class QtDateTimeEditFactoryPrivate * __thiscall QtDateTimeEditFactory::d_func(void))
                  ?d_func@QtDateTimeEditFactory@@ABEPBVQtDateTimeEditFactoryPrivate@@XZ (private: class QtDateTimeEditFactoryPrivate const * __thiscall QtDateTimeEditFactory::d_func(void)const )
                  ?d_func@QtDateTimePropertyManager@@AAEPAVQtDateTimePropertyManagerPrivate@@XZ (private: class QtDateTimePropertyManagerPrivate * __thiscall QtDateTimePropertyManager::d_func(void))
                  ?d_func@QtDateTimePropertyManager@@ABEPBVQtDateTimePropertyManagerPrivate@@XZ (private: class QtDateTimePropertyManagerPrivate const * __thiscall QtDateTimePropertyManager::d_func(void)const )
                  ?d_func@QtDoublePropertyManager@@AAEPAVQtDoublePropertyManagerPrivate@@XZ (private: class QtDoublePropertyManagerPrivate * __thiscall QtDoublePropertyManager::d_func(void))
                  ?d_func@QtDoublePropertyManager@@ABEPBVQtDoublePropertyManagerPrivate@@XZ (private: class QtDoublePropertyManagerPrivate const * __thiscall QtDoublePropertyManager::d_func(void)const )
                  ?d_func@QtDoubleSpinBoxFactory@@AAEPAVQtDoubleSpinBoxFactoryPrivate@@XZ (private: class QtDoubleSpinBoxFactoryPrivate * __thiscall QtDoubleSpinBoxFactory::d_func(void))
                  ?d_func@QtDoubleSpinBoxFactory@@ABEPBVQtDoubleSpinBoxFactoryPrivate@@XZ (private: class QtDoubleSpinBoxFactoryPrivate const * __thiscall QtDoubleSpinBoxFactory::d_func(void)const )
                  ?d_func@QtEnumEditorFactory@@AAEPAVQtEnumEditorFactoryPrivate@@XZ (private: class QtEnumEditorFactoryPrivate * __thiscall QtEnumEditorFactory::d_func(void))
                  ?d_func@QtEnumEditorFactory@@ABEPBVQtEnumEditorFactoryPrivate@@XZ (private: class QtEnumEditorFactoryPrivate const * __thiscall QtEnumEditorFactory::d_func(void)const )
                  ?d_func@QtEnumPropertyManager@@AAEPAVQtEnumPropertyManagerPrivate@@XZ (private: class QtEnumPropertyManagerPrivate * __thiscall QtEnumPropertyManager::d_func(void))
                  ?d_func@QtEnumPropertyManager@@ABEPBVQtEnumPropertyManagerPrivate@@XZ (private: class QtEnumPropertyManagerPrivate const * __thiscall QtEnumPropertyManager::d_func(void)const )
                  ?d_func@QtFlagPropertyManager@@AAEPAVQtFlagPropertyManagerPrivate@@XZ (private: class QtFlagPropertyManagerPrivate * __thiscall QtFlagPropertyManager::d_func(void))
                  ?d_func@QtFlagPropertyManager@@ABEPBVQtFlagPropertyManagerPrivate@@XZ (private: class QtFlagPropertyManagerPrivate const * __thiscall QtFlagPropertyManager::d_func(void)const )
                  ?d_func@QtFontEditorFactory@@AAEPAVQtFontEditorFactoryPrivate@@XZ (private: class QtFontEditorFactoryPrivate * __thiscall QtFontEditorFactory::d_func(void))
                  ?d_func@QtFontEditorFactory@@ABEPBVQtFontEditorFactoryPrivate@@XZ (private: class QtFontEditorFactoryPrivate const * __thiscall QtFontEditorFactory::d_func(void)const )
                  ?d_func@QtFontPropertyManager@@AAEPAVQtFontPropertyManagerPrivate@@XZ (private: class QtFontPropertyManagerPrivate * __thiscall QtFontPropertyManager::d_func(void))
                  ?d_func@QtFontPropertyManager@@ABEPBVQtFontPropertyManagerPrivate@@XZ (private: class QtFontPropertyManagerPrivate const * __thiscall QtFontPropertyManager::d_func(void)const )
                  ?d_func@QtGroupBoxPropertyBrowser@@AAEPAVQtGroupBoxPropertyBrowserPrivate@@XZ (private: class QtGroupBoxPropertyBrowserPrivate * __thiscall QtGroupBoxPropertyBrowser::d_func(void))
                  ?d_func@QtGroupBoxPropertyBrowser@@ABEPBVQtGroupBoxPropertyBrowserPrivate@@XZ (private: class QtGroupBoxPropertyBrowserPrivate const * __thiscall QtGroupBoxPropertyBrowser::d_func(void)const )
                  ?d_func@QtIntPropertyManager@@AAEPAVQtIntPropertyManagerPrivate@@XZ (private: class QtIntPropertyManagerPrivate * __thiscall QtIntPropertyManager::d_func(void))
                  ?d_func@QtIntPropertyManager@@ABEPBVQtIntPropertyManagerPrivate@@XZ (private: class QtIntPropertyManagerPrivate const * __thiscall QtIntPropertyManager::d_func(void)const )
                  ?d_func@QtKeySequenceEditorFactory@@AAEPAVQtKeySequenceEditorFactoryPrivate@@XZ (private: class QtKeySequenceEditorFactoryPrivate * __thiscall QtKeySequenceEditorFactory::d_func(void))
                  ?d_func@QtKeySequenceEditorFactory@@ABEPBVQtKeySequenceEditorFactoryPrivate@@XZ (private: class QtKeySequenceEditorFactoryPrivate const * __thiscall QtKeySequenceEditorFactory::d_func(void)const )
                  ?d_func@QtKeySequencePropertyManager@@AAEPAVQtKeySequencePropertyManagerPrivate@@XZ (private: class QtKeySequencePropertyManagerPrivate * __thiscall QtKeySequencePropertyManager::d_func(void))
                  ?d_func@QtKeySequencePropertyManager@@ABEPBVQtKeySequencePropertyManagerPrivate@@XZ (private: class QtKeySequencePropertyManagerPrivate const * __thiscall QtKeySequencePropertyManager::d_func(void)const )
                  ?d_func@QtLineEditFactory@@AAEPAVQtLineEditFactoryPrivate@@XZ (private: class QtLineEditFactoryPrivate * __thiscall QtLineEditFactory::d_func(void))
                  ?d_func@QtLineEditFactory@@ABEPBVQtLineEditFactoryPrivate@@XZ (private: class QtLineEditFactoryPrivate const * __thiscall QtLineEditFactory::d_func(void)const )
                  ?d_func@QtLocalePropertyManager@@AAEPAVQtLocalePropertyManagerPrivate@@XZ (private: class QtLocalePropertyManagerPrivate * __thiscall QtLocalePropertyManager::d_func(void))
                  ?d_func@QtLocalePropertyManager@@ABEPBVQtLocalePropertyManagerPrivate@@XZ (private: class QtLocalePropertyManagerPrivate const * __thiscall QtLocalePropertyManager::d_func(void)const )
                  ?d_func@QtPointFPropertyManager@@AAEPAVQtPointFPropertyManagerPrivate@@XZ (private: class QtPointFPropertyManagerPrivate * __thiscall QtPointFPropertyManager::d_func(void))
                  ?d_func@QtPointFPropertyManager@@ABEPBVQtPointFPropertyManagerPrivate@@XZ (private: class QtPointFPropertyManagerPrivate const * __thiscall QtPointFPropertyManager::d_func(void)const )
                  ?d_func@QtPointPropertyManager@@AAEPAVQtPointPropertyManagerPrivate@@XZ (private: class QtPointPropertyManagerPrivate * __thiscall QtPointPropertyManager::d_func(void))
                  ?d_func@QtPointPropertyManager@@ABEPBVQtPointPropertyManagerPrivate@@XZ (private: class QtPointPropertyManagerPrivate const * __thiscall QtPointPropertyManager::d_func(void)const )
                  ?d_func@QtRectFPropertyManager@@AAEPAVQtRectFPropertyManagerPrivate@@XZ (private: class QtRectFPropertyManagerPrivate * __thiscall QtRectFPropertyManager::d_func(void))
                  ?d_func@QtRectFPropertyManager@@ABEPBVQtRectFPropertyManagerPrivate@@XZ (private: class QtRectFPropertyManagerPrivate const * __thiscall QtRectFPropertyManager::d_func(void)const )
                  ?d_func@QtRectPropertyManager@@AAEPAVQtRectPropertyManagerPrivate@@XZ (private: class QtRectPropertyManagerPrivate * __thiscall QtRectPropertyManager::d_func(void))
                  ?d_func@QtRectPropertyManager@@ABEPBVQtRectPropertyManagerPrivate@@XZ (private: class QtRectPropertyManagerPrivate const * __thiscall QtRectPropertyManager::d_func(void)const )
                  ?d_func@QtScrollBarFactory@@AAEPAVQtScrollBarFactoryPrivate@@XZ (private: class QtScrollBarFactoryPrivate * __thiscall QtScrollBarFactory::d_func(void))
                  ?d_func@QtScrollBarFactory@@ABEPBVQtScrollBarFactoryPrivate@@XZ (private: class QtScrollBarFactoryPrivate const * __thiscall QtScrollBarFactory::d_func(void)const )
                  ?d_func@QtSizeFPropertyManager@@AAEPAVQtSizeFPropertyManagerPrivate@@XZ (private: class QtSizeFPropertyManagerPrivate * __thiscall QtSizeFPropertyManager::d_func(void))
                  ?d_func@QtSizeFPropertyManager@@ABEPBVQtSizeFPropertyManagerPrivate@@XZ (private: class QtSizeFPropertyManagerPrivate const * __thiscall QtSizeFPropertyManager::d_func(void)const )
                  ?d_func@QtSizePolicyPropertyManager@@AAEPAVQtSizePolicyPropertyManagerPrivate@@XZ (private: class QtSizePolicyPropertyManagerPrivate * __thiscall QtSizePolicyPropertyManager::d_func(void))
                  ?d_func@QtSizePolicyPropertyManager@@ABEPBVQtSizePolicyPropertyManagerPrivate@@XZ (private: class QtSizePolicyPropertyManagerPrivate const * __thiscall QtSizePolicyPropertyManager::d_func(void)const )
                  ?d_func@QtSizePropertyManager@@AAEPAVQtSizePropertyManagerPrivate@@XZ (private: class QtSizePropertyManagerPrivate * __thiscall QtSizePropertyManager::d_func(void))
                  ?d_func@QtSizePropertyManager@@ABEPBVQtSizePropertyManagerPrivate@@XZ (private: class QtSizePropertyManagerPrivate const * __thiscall QtSizePropertyManager::d_func(void)const )
                  ?d_func@QtSliderFactory@@AAEPAVQtSliderFactoryPrivate@@XZ (private: class QtSliderFactoryPrivate * __thiscall QtSliderFactory::d_func(void))
                  ?d_func@QtSliderFactory@@ABEPBVQtSliderFactoryPrivate@@XZ (private: class QtSliderFactoryPrivate const * __thiscall QtSliderFactory::d_func(void)const )
                  ?d_func@QtSpinBoxFactory@@AAEPAVQtSpinBoxFactoryPrivate@@XZ (private: class QtSpinBoxFactoryPrivate * __thiscall QtSpinBoxFactory::d_func(void))
                  ?d_func@QtSpinBoxFactory@@ABEPBVQtSpinBoxFactoryPrivate@@XZ (private: class QtSpinBoxFactoryPrivate const * __thiscall QtSpinBoxFactory::d_func(void)const )
                  ?d_func@QtStringPropertyManager@@AAEPAVQtStringPropertyManagerPrivate@@XZ (private: class QtStringPropertyManagerPrivate * __thiscall QtStringPropertyManager::d_func(void))
                  ?d_func@QtStringPropertyManager@@ABEPBVQtStringPropertyManagerPrivate@@XZ (private: class QtStringPropertyManagerPrivate const * __thiscall QtStringPropertyManager::d_func(void)const )
                  ?d_func@QtTimeEditFactory@@AAEPAVQtTimeEditFactoryPrivate@@XZ (private: class QtTimeEditFactoryPrivate * __thiscall QtTimeEditFactory::d_func(void))
                  ?d_func@QtTimeEditFactory@@ABEPBVQtTimeEditFactoryPrivate@@XZ (private: class QtTimeEditFactoryPrivate const * __thiscall QtTimeEditFactory::d_func(void)const )
                  ?d_func@QtTimePropertyManager@@AAEPAVQtTimePropertyManagerPrivate@@XZ (private: class QtTimePropertyManagerPrivate * __thiscall QtTimePropertyManager::d_func(void))
                  ?d_func@QtTimePropertyManager@@ABEPBVQtTimePropertyManagerPrivate@@XZ (private: class QtTimePropertyManagerPrivate const * __thiscall QtTimePropertyManager::d_func(void)const )
                  ?d_func@QtTreePropertyBrowser@@AAEPAVQtTreePropertyBrowserPrivate@@XZ (private: class QtTreePropertyBrowserPrivate * __thiscall QtTreePropertyBrowser::d_func(void))
                  ?d_func@QtTreePropertyBrowser@@ABEPBVQtTreePropertyBrowserPrivate@@XZ (private: class QtTreePropertyBrowserPrivate const * __thiscall QtTreePropertyBrowser::d_func(void)const )
                  ?d_func@QtVariantEditorFactory@@AAEPAVQtVariantEditorFactoryPrivate@@XZ (private: class QtVariantEditorFactoryPrivate * __thiscall QtVariantEditorFactory::d_func(void))
                  ?d_func@QtVariantEditorFactory@@ABEPBVQtVariantEditorFactoryPrivate@@XZ (private: class QtVariantEditorFactoryPrivate const * __thiscall QtVariantEditorFactory::d_func(void)const )
                  ?d_func@QtVariantPropertyManager@@AAEPAVQtVariantPropertyManagerPrivate@@XZ (private: class QtVariantPropertyManagerPrivate * __thiscall QtVariantPropertyManager::d_func(void))
                  ?d_func@QtVariantPropertyManager@@ABEPBVQtVariantPropertyManagerPrivate@@XZ (private: class QtVariantPropertyManagerPrivate const * __thiscall QtVariantPropertyManager::d_func(void)const )
                  ?decimals@QtDoublePropertyManager@@QBEHPBVQtProperty@@@Z (public: int __thiscall QtDoublePropertyManager::decimals(class QtProperty const *)const )
                  ?decimals@QtPointFPropertyManager@@QBEHPBVQtProperty@@@Z (public: int __thiscall QtPointFPropertyManager::decimals(class QtProperty const *)const )
                  ?decimals@QtRectFPropertyManager@@QBEHPBVQtProperty@@@Z (public: int __thiscall QtRectFPropertyManager::decimals(class QtProperty const *)const )
                  ?decimals@QtSizeFPropertyManager@@QBEHPBVQtProperty@@@Z (public: int __thiscall QtSizeFPropertyManager::decimals(class QtProperty const *)const )
                  ?decimalsChanged@QtDoublePropertyManager@@IAEXPAVQtProperty@@H@Z (protected: void __thiscall QtDoublePropertyManager::decimalsChanged(class QtProperty *,int))
                  ?decimalsChanged@QtPointFPropertyManager@@IAEXPAVQtProperty@@H@Z (protected: void __thiscall QtPointFPropertyManager::decimalsChanged(class QtProperty *,int))
                  ?decimalsChanged@QtRectFPropertyManager@@IAEXPAVQtProperty@@H@Z (protected: void __thiscall QtRectFPropertyManager::decimalsChanged(class QtProperty *,int))
                  ?decimalsChanged@QtSizeFPropertyManager@@IAEXPAVQtProperty@@H@Z (protected: void __thiscall QtSizeFPropertyManager::decimalsChanged(class QtProperty *,int))
                  ?disconnectPropertyManager@QtCharEditorFactory@@MAEXPAVQtCharPropertyManager@@@Z (protected: virtual void __thiscall QtCharEditorFactory::disconnectPropertyManager(class QtCharPropertyManager *))
                  ?disconnectPropertyManager@QtCheckBoxFactory@@MAEXPAVQtBoolPropertyManager@@@Z (protected: virtual void __thiscall QtCheckBoxFactory::disconnectPropertyManager(class QtBoolPropertyManager *))
                  ?disconnectPropertyManager@QtColorEditorFactory@@MAEXPAVQtColorPropertyManager@@@Z (protected: virtual void __thiscall QtColorEditorFactory::disconnectPropertyManager(class QtColorPropertyManager *))
                  ?disconnectPropertyManager@QtCursorEditorFactory@@MAEXPAVQtCursorPropertyManager@@@Z (protected: virtual void __thiscall QtCursorEditorFactory::disconnectPropertyManager(class QtCursorPropertyManager *))
                  ?disconnectPropertyManager@QtDateEditFactory@@MAEXPAVQtDatePropertyManager@@@Z (protected: virtual void __thiscall QtDateEditFactory::disconnectPropertyManager(class QtDatePropertyManager *))
                  ?disconnectPropertyManager@QtDateTimeEditFactory@@MAEXPAVQtDateTimePropertyManager@@@Z (protected: virtual void __thiscall QtDateTimeEditFactory::disconnectPropertyManager(class QtDateTimePropertyManager *))
                  ?disconnectPropertyManager@QtDoubleSpinBoxFactory@@MAEXPAVQtDoublePropertyManager@@@Z (protected: virtual void __thiscall QtDoubleSpinBoxFactory::disconnectPropertyManager(class QtDoublePropertyManager *))
                  ?disconnectPropertyManager@QtEnumEditorFactory@@MAEXPAVQtEnumPropertyManager@@@Z (protected: virtual void __thiscall QtEnumEditorFactory::disconnectPropertyManager(class QtEnumPropertyManager *))
                  ?disconnectPropertyManager@QtFontEditorFactory@@MAEXPAVQtFontPropertyManager@@@Z (protected: virtual void __thiscall QtFontEditorFactory::disconnectPropertyManager(class QtFontPropertyManager *))
                  ?disconnectPropertyManager@QtKeySequenceEditorFactory@@MAEXPAVQtKeySequencePropertyManager@@@Z (protected: virtual void __thiscall QtKeySequenceEditorFactory::disconnectPropertyManager(class QtKeySequencePropertyManager *))
                  ?disconnectPropertyManager@QtLineEditFactory@@MAEXPAVQtStringPropertyManager@@@Z (protected: virtual void __thiscall QtLineEditFactory::disconnectPropertyManager(class QtStringPropertyManager *))
                  ?disconnectPropertyManager@QtScrollBarFactory@@MAEXPAVQtIntPropertyManager@@@Z (protected: virtual void __thiscall QtScrollBarFactory::disconnectPropertyManager(class QtIntPropertyManager *))
                  ?disconnectPropertyManager@QtSliderFactory@@MAEXPAVQtIntPropertyManager@@@Z (protected: virtual void __thiscall QtSliderFactory::disconnectPropertyManager(class QtIntPropertyManager *))
                  ?disconnectPropertyManager@QtSpinBoxFactory@@MAEXPAVQtIntPropertyManager@@@Z (protected: virtual void __thiscall QtSpinBoxFactory::disconnectPropertyManager(class QtIntPropertyManager *))
                  ?disconnectPropertyManager@QtTimeEditFactory@@MAEXPAVQtTimePropertyManager@@@Z (protected: virtual void __thiscall QtTimeEditFactory::disconnectPropertyManager(class QtTimePropertyManager *))
                  ?disconnectPropertyManager@QtVariantEditorFactory@@MAEXPAVQtVariantPropertyManager@@@Z (protected: virtual void __thiscall QtVariantEditorFactory::disconnectPropertyManager(class QtVariantPropertyManager *))
                  ?editItem@QtTreePropertyBrowser@@QAEXPAVQtBrowserItem@@@Z (public: void __thiscall QtTreePropertyBrowser::editItem(class QtBrowserItem *))
                  ?enumIcons@QtEnumPropertyManager@@QBE?AV?$QMap@HVQIcon@@@@PBVQtProperty@@@Z (public: class QMap<int,class QIcon> __thiscall QtEnumPropertyManager::enumIcons(class QtProperty const *)const )
                  ?enumIconsChanged@QtEnumPropertyManager@@IAEXPAVQtProperty@@ABV?$QMap@HVQIcon@@@@@Z (protected: void __thiscall QtEnumPropertyManager::enumIconsChanged(class QtProperty *,class QMap<int,class QIcon> const &))
                  ?enumNames@QtEnumPropertyManager@@QBE?AVQStringList@@PBVQtProperty@@@Z (public: class QStringList __thiscall QtEnumPropertyManager::enumNames(class QtProperty const *)const )
                  ?enumNamesChanged@QtEnumPropertyManager@@IAEXPAVQtProperty@@ABVQStringList@@@Z (protected: void __thiscall QtEnumPropertyManager::enumNamesChanged(class QtProperty *,class QStringList const &))
                  ?enumTypeId@QtVariantPropertyManager@@SAHXZ (public: static int __cdecl QtVariantPropertyManager::enumTypeId(void))
                  ?expanded@QtButtonPropertyBrowser@@IAEXPAVQtBrowserItem@@@Z (protected: void __thiscall QtButtonPropertyBrowser::expanded(class QtBrowserItem *))
                  ?expanded@QtTreePropertyBrowser@@IAEXPAVQtBrowserItem@@@Z (protected: void __thiscall QtTreePropertyBrowser::expanded(class QtBrowserItem *))
                  ?flagNames@QtFlagPropertyManager@@QBE?AVQStringList@@PBVQtProperty@@@Z (public: class QStringList __thiscall QtFlagPropertyManager::flagNames(class QtProperty const *)const )
                  ?flagNamesChanged@QtFlagPropertyManager@@IAEXPAVQtProperty@@ABVQStringList@@@Z (protected: void __thiscall QtFlagPropertyManager::flagNamesChanged(class QtProperty *,class QStringList const &))
                  ?flagTypeId@QtVariantPropertyManager@@SAHXZ (public: static int __cdecl QtVariantPropertyManager::flagTypeId(void))
                  ?groupTypeId@QtVariantPropertyManager@@SAHXZ (public: static int __cdecl QtVariantPropertyManager::groupTypeId(void))
                  ?hasValue@QtAbstractPropertyManager@@MBE_NPBVQtProperty@@@Z (protected: virtual bool __thiscall QtAbstractPropertyManager::hasValue(class QtProperty const *)const )
                  ?hasValue@QtGroupPropertyManager@@MBE_NPBVQtProperty@@@Z (protected: virtual bool __thiscall QtGroupPropertyManager::hasValue(class QtProperty const *)const )
                  ?hasValue@QtProperty@@QBE_NXZ (public: bool __thiscall QtProperty::hasValue(void)const )
                  ?hasValue@QtVariantPropertyManager@@MBE_NPBVQtProperty@@@Z (protected: virtual bool __thiscall QtVariantPropertyManager::hasValue(class QtProperty const *)const )
                  ?iconMapTypeId@QtVariantPropertyManager@@SAHXZ (public: static int __cdecl QtVariantPropertyManager::iconMapTypeId(void))
                  ?indentation@QtTreePropertyBrowser@@QBEHXZ (public: int __thiscall QtTreePropertyBrowser::indentation(void)const )
                  ?initializeProperty@QtBoolPropertyManager@@MAEXPAVQtProperty@@@Z (protected: virtual void __thiscall QtBoolPropertyManager::initializeProperty(class QtProperty *))
                  ?initializeProperty@QtCharPropertyManager@@MAEXPAVQtProperty@@@Z (protected: virtual void __thiscall QtCharPropertyManager::initializeProperty(class QtProperty *))
                  ?initializeProperty@QtColorPropertyManager@@MAEXPAVQtProperty@@@Z (protected: virtual void __thiscall QtColorPropertyManager::initializeProperty(class QtProperty *))
                  ?initializeProperty@QtCursorPropertyManager@@MAEXPAVQtProperty@@@Z (protected: virtual void __thiscall QtCursorPropertyManager::initializeProperty(class QtProperty *))
                  ?initializeProperty@QtDatePropertyManager@@MAEXPAVQtProperty@@@Z (protected: virtual void __thiscall QtDatePropertyManager::initializeProperty(class QtProperty *))
                  ?initializeProperty@QtDateTimePropertyManager@@MAEXPAVQtProperty@@@Z (protected: virtual void __thiscall QtDateTimePropertyManager::initializeProperty(class QtProperty *))
                  ?initializeProperty@QtDoublePropertyManager@@MAEXPAVQtProperty@@@Z (protected: virtual void __thiscall QtDoublePropertyManager::initializeProperty(class QtProperty *))
                  ?initializeProperty@QtEnumPropertyManager@@MAEXPAVQtProperty@@@Z (protected: virtual void __thiscall QtEnumPropertyManager::initializeProperty(class QtProperty *))
                  ?initializeProperty@QtFlagPropertyManager@@MAEXPAVQtProperty@@@Z (protected: virtual void __thiscall QtFlagPropertyManager::initializeProperty(class QtProperty *))
                  ?initializeProperty@QtFontPropertyManager@@MAEXPAVQtProperty@@@Z (protected: virtual void __thiscall QtFontPropertyManager::initializeProperty(class QtProperty *))
                  ?initializeProperty@QtGroupPropertyManager@@MAEXPAVQtProperty@@@Z (protected: virtual void __thiscall QtGroupPropertyManager::initializeProperty(class QtProperty *))
                  ?initializeProperty@QtIntPropertyManager@@MAEXPAVQtProperty@@@Z (protected: virtual void __thiscall QtIntPropertyManager::initializeProperty(class QtProperty *))
                  ?initializeProperty@QtKeySequencePropertyManager@@MAEXPAVQtProperty@@@Z (protected: virtual void __thiscall QtKeySequencePropertyManager::initializeProperty(class QtProperty *))
                  ?initializeProperty@QtLocalePropertyManager@@MAEXPAVQtProperty@@@Z (protected: virtual void __thiscall QtLocalePropertyManager::initializeProperty(class QtProperty *))
                  ?initializeProperty@QtPointFPropertyManager@@MAEXPAVQtProperty@@@Z (protected: virtual void __thiscall QtPointFPropertyManager::initializeProperty(class QtProperty *))
                  ?initializeProperty@QtPointPropertyManager@@MAEXPAVQtProperty@@@Z (protected: virtual void __thiscall QtPointPropertyManager::initializeProperty(class QtProperty *))
                  ?initializeProperty@QtRectFPropertyManager@@MAEXPAVQtProperty@@@Z (protected: virtual void __thiscall QtRectFPropertyManager::initializeProperty(class QtProperty *))
                  ?initializeProperty@QtRectPropertyManager@@MAEXPAVQtProperty@@@Z (protected: virtual void __thiscall QtRectPropertyManager::initializeProperty(class QtProperty *))
                  ?initializeProperty@QtSizeFPropertyManager@@MAEXPAVQtProperty@@@Z (protected: virtual void __thiscall QtSizeFPropertyManager::initializeProperty(class QtProperty *))
                  ?initializeProperty@QtSizePolicyPropertyManager@@MAEXPAVQtProperty@@@Z (protected: virtual void __thiscall QtSizePolicyPropertyManager::initializeProperty(class QtProperty *))
                  ?initializeProperty@QtSizePropertyManager@@MAEXPAVQtProperty@@@Z (protected: virtual void __thiscall QtSizePropertyManager::initializeProperty(class QtProperty *))
                  ?initializeProperty@QtStringPropertyManager@@MAEXPAVQtProperty@@@Z (protected: virtual void __thiscall QtStringPropertyManager::initializeProperty(class QtProperty *))
                  ?initializeProperty@QtTimePropertyManager@@MAEXPAVQtProperty@@@Z (protected: virtual void __thiscall QtTimePropertyManager::initializeProperty(class QtProperty *))
                  ?initializeProperty@QtVariantPropertyManager@@MAEXPAVQtProperty@@@Z (protected: virtual void __thiscall QtVariantPropertyManager::initializeProperty(class QtProperty *))
                  ?insertProperty@QtAbstractPropertyBrowser@@QAEPAVQtBrowserItem@@PAVQtProperty@@0@Z (public: class QtBrowserItem * __thiscall QtAbstractPropertyBrowser::insertProperty(class QtProperty *,class QtProperty *))
                  ?insertSubProperty@QtProperty@@QAEXPAV1@0@Z (public: void __thiscall QtProperty::insertSubProperty(class QtProperty *,class QtProperty *))
                  ?isEnabled@QtProperty@@QBE_NXZ (public: bool __thiscall QtProperty::isEnabled(void)const )
                  ?isExpanded@QtButtonPropertyBrowser@@QBE_NPAVQtBrowserItem@@@Z (public: bool __thiscall QtButtonPropertyBrowser::isExpanded(class QtBrowserItem *)const )
                  ?isExpanded@QtTreePropertyBrowser@@QBE_NPAVQtBrowserItem@@@Z (public: bool __thiscall QtTreePropertyBrowser::isExpanded(class QtBrowserItem *)const )
                  ?isHeaderVisible@QtTreePropertyBrowser@@QBE_NXZ (public: bool __thiscall QtTreePropertyBrowser::isHeaderVisible(void)const )
                  ?isItemVisible@QtTreePropertyBrowser@@QBE_NPAVQtBrowserItem@@@Z (public: bool __thiscall QtTreePropertyBrowser::isItemVisible(class QtBrowserItem *)const )
                  ?isModified@QtProperty@@QBE_NXZ (public: bool __thiscall QtProperty::isModified(void)const )
                  ?isPropertyTypeSupported@QtVariantPropertyManager@@UBE_NH@Z (public: virtual bool __thiscall QtVariantPropertyManager::isPropertyTypeSupported(int)const )
                  ?itemChanged@QtButtonPropertyBrowser@@MAEXPAVQtBrowserItem@@@Z (protected: virtual void __thiscall QtButtonPropertyBrowser::itemChanged(class QtBrowserItem *))
                  ?itemChanged@QtGroupBoxPropertyBrowser@@MAEXPAVQtBrowserItem@@@Z (protected: virtual void __thiscall QtGroupBoxPropertyBrowser::itemChanged(class QtBrowserItem *))
                  ?itemChanged@QtTreePropertyBrowser@@MAEXPAVQtBrowserItem@@@Z (protected: virtual void __thiscall QtTreePropertyBrowser::itemChanged(class QtBrowserItem *))
                  ?itemInserted@QtButtonPropertyBrowser@@MAEXPAVQtBrowserItem@@0@Z (protected: virtual void __thiscall QtButtonPropertyBrowser::itemInserted(class QtBrowserItem *,class QtBrowserItem *))
                  ?itemInserted@QtGroupBoxPropertyBrowser@@MAEXPAVQtBrowserItem@@0@Z (protected: virtual void __thiscall QtGroupBoxPropertyBrowser::itemInserted(class QtBrowserItem *,class QtBrowserItem *))
                  ?itemInserted@QtTreePropertyBrowser@@MAEXPAVQtBrowserItem@@0@Z (protected: virtual void __thiscall QtTreePropertyBrowser::itemInserted(class QtBrowserItem *,class QtBrowserItem *))
                  ?itemRemoved@QtButtonPropertyBrowser@@MAEXPAVQtBrowserItem@@@Z (protected: virtual void __thiscall QtButtonPropertyBrowser::itemRemoved(class QtBrowserItem *))
                  ?itemRemoved@QtGroupBoxPropertyBrowser@@MAEXPAVQtBrowserItem@@@Z (protected: virtual void __thiscall QtGroupBoxPropertyBrowser::itemRemoved(class QtBrowserItem *))
                  ?itemRemoved@QtTreePropertyBrowser@@MAEXPAVQtBrowserItem@@@Z (protected: virtual void __thiscall QtTreePropertyBrowser::itemRemoved(class QtBrowserItem *))
                  ?items@QtAbstractPropertyBrowser@@QBE?AV?$QList@PAVQtBrowserItem@@@@PAVQtProperty@@@Z (public: class QList<class QtBrowserItem *> __thiscall QtAbstractPropertyBrowser::items(class QtProperty *)const )
                  ?managerDestroyed@?$QtAbstractEditorFactory@VQtBoolPropertyManager@@@@MAEXPAVQObject@@@Z (protected: virtual void __thiscall QtAbstractEditorFactory<class QtBoolPropertyManager>::managerDestroyed(class QObject *))
                  ?managerDestroyed@?$QtAbstractEditorFactory@VQtCharPropertyManager@@@@MAEXPAVQObject@@@Z (protected: virtual void __thiscall QtAbstractEditorFactory<class QtCharPropertyManager>::managerDestroyed(class QObject *))
                  ?managerDestroyed@?$QtAbstractEditorFactory@VQtColorPropertyManager@@@@MAEXPAVQObject@@@Z (protected: virtual void __thiscall QtAbstractEditorFactory<class QtColorPropertyManager>::managerDestroyed(class QObject *))
                  ?managerDestroyed@?$QtAbstractEditorFactory@VQtCursorPropertyManager@@@@MAEXPAVQObject@@@Z (protected: virtual void __thiscall QtAbstractEditorFactory<class QtCursorPropertyManager>::managerDestroyed(class QObject *))
                  ?managerDestroyed@?$QtAbstractEditorFactory@VQtDatePropertyManager@@@@MAEXPAVQObject@@@Z (protected: virtual void __thiscall QtAbstractEditorFactory<class QtDatePropertyManager>::managerDestroyed(class QObject *))
                  ?managerDestroyed@?$QtAbstractEditorFactory@VQtDateTimePropertyManager@@@@MAEXPAVQObject@@@Z (protected: virtual void __thiscall QtAbstractEditorFactory<class QtDateTimePropertyManager>::managerDestroyed(class QObject *))
                  ?managerDestroyed@?$QtAbstractEditorFactory@VQtDoublePropertyManager@@@@MAEXPAVQObject@@@Z (protected: virtual void __thiscall QtAbstractEditorFactory<class QtDoublePropertyManager>::managerDestroyed(class QObject *))
                  ?managerDestroyed@?$QtAbstractEditorFactory@VQtEnumPropertyManager@@@@MAEXPAVQObject@@@Z (protected: virtual void __thiscall QtAbstractEditorFactory<class QtEnumPropertyManager>::managerDestroyed(class QObject *))
                  ?managerDestroyed@?$QtAbstractEditorFactory@VQtFontPropertyManager@@@@MAEXPAVQObject@@@Z (protected: virtual void __thiscall QtAbstractEditorFactory<class QtFontPropertyManager>::managerDestroyed(class QObject *))
                  ?managerDestroyed@?$QtAbstractEditorFactory@VQtIntPropertyManager@@@@MAEXPAVQObject@@@Z (protected: virtual void __thiscall QtAbstractEditorFactory<class QtIntPropertyManager>::managerDestroyed(class QObject *))
                  ?managerDestroyed@?$QtAbstractEditorFactory@VQtKeySequencePropertyManager@@@@MAEXPAVQObject@@@Z (protected: virtual void __thiscall QtAbstractEditorFactory<class QtKeySequencePropertyManager>::managerDestroyed(class QObject *))
                  ?managerDestroyed@?$QtAbstractEditorFactory@VQtStringPropertyManager@@@@MAEXPAVQObject@@@Z (protected: virtual void __thiscall QtAbstractEditorFactory<class QtStringPropertyManager>::managerDestroyed(class QObject *))
                  ?managerDestroyed@?$QtAbstractEditorFactory@VQtTimePropertyManager@@@@MAEXPAVQObject@@@Z (protected: virtual void __thiscall QtAbstractEditorFactory<class QtTimePropertyManager>::managerDestroyed(class QObject *))
                  ?managerDestroyed@?$QtAbstractEditorFactory@VQtVariantPropertyManager@@@@MAEXPAVQObject@@@Z (protected: virtual void __thiscall QtAbstractEditorFactory<class QtVariantPropertyManager>::managerDestroyed(class QObject *))
                  ?maximum@QtDatePropertyManager@@QBE?AVQDate@@PBVQtProperty@@@Z (public: class QDate __thiscall QtDatePropertyManager::maximum(class QtProperty const *)const )
                  ?maximum@QtDoublePropertyManager@@QBENPBVQtProperty@@@Z (public: double __thiscall QtDoublePropertyManager::maximum(class QtProperty const *)const )
                  ?maximum@QtIntPropertyManager@@QBEHPBVQtProperty@@@Z (public: int __thiscall QtIntPropertyManager::maximum(class QtProperty const *)const )
                  ?maximum@QtSizeFPropertyManager@@QBE?AVQSizeF@@PBVQtProperty@@@Z (public: class QSizeF __thiscall QtSizeFPropertyManager::maximum(class QtProperty const *)const )
                  ?maximum@QtSizePropertyManager@@QBE?AVQSize@@PBVQtProperty@@@Z (public: class QSize __thiscall QtSizePropertyManager::maximum(class QtProperty const *)const )
                  ?metaObject@QtAbstractEditorFactoryBase@@UBEPBUQMetaObject@@XZ (public: virtual struct QMetaObject const * __thiscall QtAbstractEditorFactoryBase::metaObject(void)const )
                  ?metaObject@QtAbstractPropertyBrowser@@UBEPBUQMetaObject@@XZ (public: virtual struct QMetaObject const * __thiscall QtAbstractPropertyBrowser::metaObject(void)const )
                  ?metaObject@QtAbstractPropertyManager@@UBEPBUQMetaObject@@XZ (public: virtual struct QMetaObject const * __thiscall QtAbstractPropertyManager::metaObject(void)const )
                  ?metaObject@QtBoolPropertyManager@@UBEPBUQMetaObject@@XZ (public: virtual struct QMetaObject const * __thiscall QtBoolPropertyManager::metaObject(void)const )
                  ?metaObject@QtButtonPropertyBrowser@@UBEPBUQMetaObject@@XZ (public: virtual struct QMetaObject const * __thiscall QtButtonPropertyBrowser::metaObject(void)const )
                  ?metaObject@QtCharEditorFactory@@UBEPBUQMetaObject@@XZ (public: virtual struct QMetaObject const * __thiscall QtCharEditorFactory::metaObject(void)const )
                  ?metaObject@QtCharPropertyManager@@UBEPBUQMetaObject@@XZ (public: virtual struct QMetaObject const * __thiscall QtCharPropertyManager::metaObject(void)const )
                  ?metaObject@QtCheckBoxFactory@@UBEPBUQMetaObject@@XZ (public: virtual struct QMetaObject const * __thiscall QtCheckBoxFactory::metaObject(void)const )
                  ?metaObject@QtColorEditorFactory@@UBEPBUQMetaObject@@XZ (public: virtual struct QMetaObject const * __thiscall QtColorEditorFactory::metaObject(void)const )
                  ?metaObject@QtColorPropertyManager@@UBEPBUQMetaObject@@XZ (public: virtual struct QMetaObject const * __thiscall QtColorPropertyManager::metaObject(void)const )
                  ?metaObject@QtCursorEditorFactory@@UBEPBUQMetaObject@@XZ (public: virtual struct QMetaObject const * __thiscall QtCursorEditorFactory::metaObject(void)const )
                  ?metaObject@QtCursorPropertyManager@@UBEPBUQMetaObject@@XZ (public: virtual struct QMetaObject const * __thiscall QtCursorPropertyManager::metaObject(void)const )
                  ?metaObject@QtDateEditFactory@@UBEPBUQMetaObject@@XZ (public: virtual struct QMetaObject const * __thiscall QtDateEditFactory::metaObject(void)const )
                  ?metaObject@QtDatePropertyManager@@UBEPBUQMetaObject@@XZ (public: virtual struct QMetaObject const * __thiscall QtDatePropertyManager::metaObject(void)const )
                  ?metaObject@QtDateTimeEditFactory@@UBEPBUQMetaObject@@XZ (public: virtual struct QMetaObject const * __thiscall QtDateTimeEditFactory::metaObject(void)const )
                  ?metaObject@QtDateTimePropertyManager@@UBEPBUQMetaObject@@XZ (public: virtual struct QMetaObject const * __thiscall QtDateTimePropertyManager::metaObject(void)const )
                  ?metaObject@QtDoublePropertyManager@@UBEPBUQMetaObject@@XZ (public: virtual struct QMetaObject const * __thiscall QtDoublePropertyManager::metaObject(void)const )
                  ?metaObject@QtDoubleSpinBoxFactory@@UBEPBUQMetaObject@@XZ (public: virtual struct QMetaObject const * __thiscall QtDoubleSpinBoxFactory::metaObject(void)const )
                  ?metaObject@QtEnumEditorFactory@@UBEPBUQMetaObject@@XZ (public: virtual struct QMetaObject const * __thiscall QtEnumEditorFactory::metaObject(void)const )
                  ?metaObject@QtEnumPropertyManager@@UBEPBUQMetaObject@@XZ (public: virtual struct QMetaObject const * __thiscall QtEnumPropertyManager::metaObject(void)const )
                  ?metaObject@QtFlagPropertyManager@@UBEPBUQMetaObject@@XZ (public: virtual struct QMetaObject const * __thiscall QtFlagPropertyManager::metaObject(void)const )
                  ?metaObject@QtFontEditorFactory@@UBEPBUQMetaObject@@XZ (public: virtual struct QMetaObject const * __thiscall QtFontEditorFactory::metaObject(void)const )
                  ?metaObject@QtFontPropertyManager@@UBEPBUQMetaObject@@XZ (public: virtual struct QMetaObject const * __thiscall QtFontPropertyManager::metaObject(void)const )
                  ?metaObject@QtGroupBoxPropertyBrowser@@UBEPBUQMetaObject@@XZ (public: virtual struct QMetaObject const * __thiscall QtGroupBoxPropertyBrowser::metaObject(void)const )
                  ?metaObject@QtGroupPropertyManager@@UBEPBUQMetaObject@@XZ (public: virtual struct QMetaObject const * __thiscall QtGroupPropertyManager::metaObject(void)const )
                  ?metaObject@QtIntPropertyManager@@UBEPBUQMetaObject@@XZ (public: virtual struct QMetaObject const * __thiscall QtIntPropertyManager::metaObject(void)const )
                  ?metaObject@QtKeySequenceEditorFactory@@UBEPBUQMetaObject@@XZ (public: virtual struct QMetaObject const * __thiscall QtKeySequenceEditorFactory::metaObject(void)const )
                  ?metaObject@QtKeySequencePropertyManager@@UBEPBUQMetaObject@@XZ (public: virtual struct QMetaObject const * __thiscall QtKeySequencePropertyManager::metaObject(void)const )
                  ?metaObject@QtLineEditFactory@@UBEPBUQMetaObject@@XZ (public: virtual struct QMetaObject const * __thiscall QtLineEditFactory::metaObject(void)const )
                  ?metaObject@QtLocalePropertyManager@@UBEPBUQMetaObject@@XZ (public: virtual struct QMetaObject const * __thiscall QtLocalePropertyManager::metaObject(void)const )
                  ?metaObject@QtPointFPropertyManager@@UBEPBUQMetaObject@@XZ (public: virtual struct QMetaObject const * __thiscall QtPointFPropertyManager::metaObject(void)const )
                  ?metaObject@QtPointPropertyManager@@UBEPBUQMetaObject@@XZ (public: virtual struct QMetaObject const * __thiscall QtPointPropertyManager::metaObject(void)const )
                  ?metaObject@QtRectFPropertyManager@@UBEPBUQMetaObject@@XZ (public: virtual struct QMetaObject const * __thiscall QtRectFPropertyManager::metaObject(void)const )
                  ?metaObject@QtRectPropertyManager@@UBEPBUQMetaObject@@XZ (public: virtual struct QMetaObject const * __thiscall QtRectPropertyManager::metaObject(void)const )
                  ?metaObject@QtScrollBarFactory@@UBEPBUQMetaObject@@XZ (public: virtual struct QMetaObject const * __thiscall QtScrollBarFactory::metaObject(void)const )
                  ?metaObject@QtSizeFPropertyManager@@UBEPBUQMetaObject@@XZ (public: virtual struct QMetaObject const * __thiscall QtSizeFPropertyManager::metaObject(void)const )
                  ?metaObject@QtSizePolicyPropertyManager@@UBEPBUQMetaObject@@XZ (public: virtual struct QMetaObject const * __thiscall QtSizePolicyPropertyManager::metaObject(void)const )
                  ?metaObject@QtSizePropertyManager@@UBEPBUQMetaObject@@XZ (public: virtual struct QMetaObject const * __thiscall QtSizePropertyManager::metaObject(void)const )
                  ?metaObject@QtSliderFactory@@UBEPBUQMetaObject@@XZ (public: virtual struct QMetaObject const * __thiscall QtSliderFactory::metaObject(void)const )
                  ?metaObject@QtSpinBoxFactory@@UBEPBUQMetaObject@@XZ (public: virtual struct QMetaObject const * __thiscall QtSpinBoxFactory::metaObject(void)const )
                  ?metaObject@QtStringPropertyManager@@UBEPBUQMetaObject@@XZ (public: virtual struct QMetaObject const * __thiscall QtStringPropertyManager::metaObject(void)const )
                  ?metaObject@QtTimeEditFactory@@UBEPBUQMetaObject@@XZ (public: virtual struct QMetaObject const * __thiscall QtTimeEditFactory::metaObject(void)const )
                  ?metaObject@QtTimePropertyManager@@UBEPBUQMetaObject@@XZ (public: virtual struct QMetaObject const * __thiscall QtTimePropertyManager::metaObject(void)const )
                  ?metaObject@QtTreePropertyBrowser@@UBEPBUQMetaObject@@XZ (public: virtual struct QMetaObject const * __thiscall QtTreePropertyBrowser::metaObject(void)const )
                  ?metaObject@QtVariantEditorFactory@@UBEPBUQMetaObject@@XZ (public: virtual struct QMetaObject const * __thiscall QtVariantEditorFactory::metaObject(void)const )
                  ?metaObject@QtVariantPropertyManager@@UBEPBUQMetaObject@@XZ (public: virtual struct QMetaObject const * __thiscall QtVariantPropertyManager::metaObject(void)const )
                  ?minimum@QtDatePropertyManager@@QBE?AVQDate@@PBVQtProperty@@@Z (public: class QDate __thiscall QtDatePropertyManager::minimum(class QtProperty const *)const )
                  ?minimum@QtDoublePropertyManager@@QBENPBVQtProperty@@@Z (public: double __thiscall QtDoublePropertyManager::minimum(class QtProperty const *)const )
                  ?minimum@QtIntPropertyManager@@QBEHPBVQtProperty@@@Z (public: int __thiscall QtIntPropertyManager::minimum(class QtProperty const *)const )
                  ?minimum@QtSizeFPropertyManager@@QBE?AVQSizeF@@PBVQtProperty@@@Z (public: class QSizeF __thiscall QtSizeFPropertyManager::minimum(class QtProperty const *)const )
                  ?minimum@QtSizePropertyManager@@QBE?AVQSize@@PBVQtProperty@@@Z (public: class QSize __thiscall QtSizePropertyManager::minimum(class QtProperty const *)const )
                  ?parent@QtBrowserItem@@QBEPAV1@XZ (public: class QtBrowserItem * __thiscall QtBrowserItem::parent(void)const )
                  ?properties@QtAbstractPropertyBrowser@@QBE?AV?$QList@PAVQtProperty@@@@XZ (public: class QList<class QtProperty *> __thiscall QtAbstractPropertyBrowser::properties(void)const )
                  ?properties@QtAbstractPropertyManager@@QBE?AV?$QSet@PAVQtProperty@@@@XZ (public: class QSet<class QtProperty *> __thiscall QtAbstractPropertyManager::properties(void)const )
                  ?propertiesWithoutValueMarked@QtTreePropertyBrowser@@QBE_NXZ (public: bool __thiscall QtTreePropertyBrowser::propertiesWithoutValueMarked(void)const )
                  ?property@QtBrowserItem@@QBEPAVQtProperty@@XZ (public: class QtProperty * __thiscall QtBrowserItem::property(void)const )
                  ?propertyChanged@QtAbstractPropertyManager@@IAEXPAVQtProperty@@@Z (protected: void __thiscall QtAbstractPropertyManager::propertyChanged(class QtProperty *))
                  ?propertyChanged@QtProperty@@IAEXXZ (protected: void __thiscall QtProperty::propertyChanged(void))
                  ?propertyDestroyed@QtAbstractPropertyManager@@IAEXPAVQtProperty@@@Z (protected: void __thiscall QtAbstractPropertyManager::propertyDestroyed(class QtProperty *))
                  ?propertyInserted@QtAbstractPropertyManager@@IAEXPAVQtProperty@@00@Z (protected: void __thiscall QtAbstractPropertyManager::propertyInserted(class QtProperty *,class QtProperty *,class QtProperty *))
                  ?propertyManager@?$QtAbstractEditorFactory@VQtBoolPropertyManager@@@@QBEPAVQtBoolPropertyManager@@PAVQtProperty@@@Z (public: class QtBoolPropertyManager * __thiscall QtAbstractEditorFactory<class QtBoolPropertyManager>::propertyManager(class QtProperty *)const )
                  ?propertyManager@?$QtAbstractEditorFactory@VQtCharPropertyManager@@@@QBEPAVQtCharPropertyManager@@PAVQtProperty@@@Z (public: class QtCharPropertyManager * __thiscall QtAbstractEditorFactory<class QtCharPropertyManager>::propertyManager(class QtProperty *)const )
                  ?propertyManager@?$QtAbstractEditorFactory@VQtColorPropertyManager@@@@QBEPAVQtColorPropertyManager@@PAVQtProperty@@@Z (public: class QtColorPropertyManager * __thiscall QtAbstractEditorFactory<class QtColorPropertyManager>::propertyManager(class QtProperty *)const )
                  ?propertyManager@?$QtAbstractEditorFactory@VQtCursorPropertyManager@@@@QBEPAVQtCursorPropertyManager@@PAVQtProperty@@@Z (public: class QtCursorPropertyManager * __thiscall QtAbstractEditorFactory<class QtCursorPropertyManager>::propertyManager(class QtProperty *)const )
                  ?propertyManager@?$QtAbstractEditorFactory@VQtDatePropertyManager@@@@QBEPAVQtDatePropertyManager@@PAVQtProperty@@@Z (public: class QtDatePropertyManager * __thiscall QtAbstractEditorFactory<class QtDatePropertyManager>::propertyManager(class QtProperty *)const )
                  ?propertyManager@?$QtAbstractEditorFactory@VQtDateTimePropertyManager@@@@QBEPAVQtDateTimePropertyManager@@PAVQtProperty@@@Z (public: class QtDateTimePropertyManager * __thiscall QtAbstractEditorFactory<class QtDateTimePropertyManager>::propertyManager(class QtProperty *)const )
                  ?propertyManager@?$QtAbstractEditorFactory@VQtDoublePropertyManager@@@@QBEPAVQtDoublePropertyManager@@PAVQtProperty@@@Z (public: class QtDoublePropertyManager * __thiscall QtAbstractEditorFactory<class QtDoublePropertyManager>::propertyManager(class QtProperty *)const )
                  ?propertyManager@?$QtAbstractEditorFactory@VQtEnumPropertyManager@@@@QBEPAVQtEnumPropertyManager@@PAVQtProperty@@@Z (public: class QtEnumPropertyManager * __thiscall QtAbstractEditorFactory<class QtEnumPropertyManager>::propertyManager(class QtProperty *)const )
                  ?propertyManager@?$QtAbstractEditorFactory@VQtFontPropertyManager@@@@QBEPAVQtFontPropertyManager@@PAVQtProperty@@@Z (public: class QtFontPropertyManager * __thiscall QtAbstractEditorFactory<class QtFontPropertyManager>::propertyManager(class QtProperty *)const )
                  ?propertyManager@?$QtAbstractEditorFactory@VQtIntPropertyManager@@@@QBEPAVQtIntPropertyManager@@PAVQtProperty@@@Z (public: class QtIntPropertyManager * __thiscall QtAbstractEditorFactory<class QtIntPropertyManager>::propertyManager(class QtProperty *)const )
                  ?propertyManager@?$QtAbstractEditorFactory@VQtKeySequencePropertyManager@@@@QBEPAVQtKeySequencePropertyManager@@PAVQtProperty@@@Z (public: class QtKeySequencePropertyManager * __thiscall QtAbstractEditorFactory<class QtKeySequencePropertyManager>::propertyManager(class QtProperty *)const )
                  ?propertyManager@?$QtAbstractEditorFactory@VQtStringPropertyManager@@@@QBEPAVQtStringPropertyManager@@PAVQtProperty@@@Z (public: class QtStringPropertyManager * __thiscall QtAbstractEditorFactory<class QtStringPropertyManager>::propertyManager(class QtProperty *)const )
                  ?propertyManager@?$QtAbstractEditorFactory@VQtTimePropertyManager@@@@QBEPAVQtTimePropertyManager@@PAVQtProperty@@@Z (public: class QtTimePropertyManager * __thiscall QtAbstractEditorFactory<class QtTimePropertyManager>::propertyManager(class QtProperty *)const )
                  ?propertyManager@?$QtAbstractEditorFactory@VQtVariantPropertyManager@@@@QBEPAVQtVariantPropertyManager@@PAVQtProperty@@@Z (public: class QtVariantPropertyManager * __thiscall QtAbstractEditorFactory<class QtVariantPropertyManager>::propertyManager(class QtProperty *)const )
                  ?propertyManager@QtProperty@@QBEPAVQtAbstractPropertyManager@@XZ (public: class QtAbstractPropertyManager * __thiscall QtProperty::propertyManager(void)const )
                  ?propertyManagers@?$QtAbstractEditorFactory@VQtBoolPropertyManager@@@@QBE?AV?$QSet@PAVQtBoolPropertyManager@@@@XZ (public: class QSet<class QtBoolPropertyManager *> __thiscall QtAbstractEditorFactory<class QtBoolPropertyManager>::propertyManagers(void)const )
                  ?propertyManagers@?$QtAbstractEditorFactory@VQtCharPropertyManager@@@@QBE?AV?$QSet@PAVQtCharPropertyManager@@@@XZ (public: class QSet<class QtCharPropertyManager *> __thiscall QtAbstractEditorFactory<class QtCharPropertyManager>::propertyManagers(void)const )
                  ?propertyManagers@?$QtAbstractEditorFactory@VQtColorPropertyManager@@@@QBE?AV?$QSet@PAVQtColorPropertyManager@@@@XZ (public: class QSet<class QtColorPropertyManager *> __thiscall QtAbstractEditorFactory<class QtColorPropertyManager>::propertyManagers(void)const )
                  ?propertyManagers@?$QtAbstractEditorFactory@VQtCursorPropertyManager@@@@QBE?AV?$QSet@PAVQtCursorPropertyManager@@@@XZ (public: class QSet<class QtCursorPropertyManager *> __thiscall QtAbstractEditorFactory<class QtCursorPropertyManager>::propertyManagers(void)const )
                  ?propertyManagers@?$QtAbstractEditorFactory@VQtDatePropertyManager@@@@QBE?AV?$QSet@PAVQtDatePropertyManager@@@@XZ (public: class QSet<class QtDatePropertyManager *> __thiscall QtAbstractEditorFactory<class QtDatePropertyManager>::propertyManagers(void)const )
                  ?propertyManagers@?$QtAbstractEditorFactory@VQtDateTimePropertyManager@@@@QBE?AV?$QSet@PAVQtDateTimePropertyManager@@@@XZ (public: class QSet<class QtDateTimePropertyManager *> __thiscall QtAbstractEditorFactory<class QtDateTimePropertyManager>::propertyManagers(void)const )
                  ?propertyManagers@?$QtAbstractEditorFactory@VQtDoublePropertyManager@@@@QBE?AV?$QSet@PAVQtDoublePropertyManager@@@@XZ (public: class QSet<class QtDoublePropertyManager *> __thiscall QtAbstractEditorFactory<class QtDoublePropertyManager>::propertyManagers(void)const )
                  ?propertyManagers@?$QtAbstractEditorFactory@VQtEnumPropertyManager@@@@QBE?AV?$QSet@PAVQtEnumPropertyManager@@@@XZ (public: class QSet<class QtEnumPropertyManager *> __thiscall QtAbstractEditorFactory<class QtEnumPropertyManager>::propertyManagers(void)const )
                  ?propertyManagers@?$QtAbstractEditorFactory@VQtFontPropertyManager@@@@QBE?AV?$QSet@PAVQtFontPropertyManager@@@@XZ (public: class QSet<class QtFontPropertyManager *> __thiscall QtAbstractEditorFactory<class QtFontPropertyManager>::propertyManagers(void)const )
                  ?propertyManagers@?$QtAbstractEditorFactory@VQtIntPropertyManager@@@@QBE?AV?$QSet@PAVQtIntPropertyManager@@@@XZ (public: class QSet<class QtIntPropertyManager *> __thiscall QtAbstractEditorFactory<class QtIntPropertyManager>::propertyManagers(void)const )
                  ?propertyManagers@?$QtAbstractEditorFactory@VQtKeySequencePropertyManager@@@@QBE?AV?$QSet@PAVQtKeySequencePropertyManager@@@@XZ (public: class QSet<class QtKeySequencePropertyManager *> __thiscall QtAbstractEditorFactory<class QtKeySequencePropertyManager>::propertyManagers(void)const )
                  ?propertyManagers@?$QtAbstractEditorFactory@VQtStringPropertyManager@@@@QBE?AV?$QSet@PAVQtStringPropertyManager@@@@XZ (public: class QSet<class QtStringPropertyManager *> __thiscall QtAbstractEditorFactory<class QtStringPropertyManager>::propertyManagers(void)const )
                  ?propertyManagers@?$QtAbstractEditorFactory@VQtTimePropertyManager@@@@QBE?AV?$QSet@PAVQtTimePropertyManager@@@@XZ (public: class QSet<class QtTimePropertyManager *> __thiscall QtAbstractEditorFactory<class QtTimePropertyManager>::propertyManagers(void)const )
                  ?propertyManagers@?$QtAbstractEditorFactory@VQtVariantPropertyManager@@@@QBE?AV?$QSet@PAVQtVariantPropertyManager@@@@XZ (public: class QSet<class QtVariantPropertyManager *> __thiscall QtAbstractEditorFactory<class QtVariantPropertyManager>::propertyManagers(void)const )
                  ?propertyName@QtProperty@@QBE?AVQString@@XZ (public: class QString __thiscall QtProperty::propertyName(void)const )
                  ?propertyRemoved@QtAbstractPropertyManager@@IAEXPAVQtProperty@@0@Z (protected: void __thiscall QtAbstractPropertyManager::propertyRemoved(class QtProperty *,class QtProperty *))
                  ?propertyType@QtVariantProperty@@QBEHXZ (public: int __thiscall QtVariantProperty::propertyType(void)const )
                  ?propertyType@QtVariantPropertyManager@@QBEHPBVQtProperty@@@Z (public: int __thiscall QtVariantPropertyManager::propertyType(class QtProperty const *)const )
                  ?qt_metacall@QtAbstractEditorFactoryBase@@UAEHW4Call@QMetaObject@@HPAPAX@Z (public: virtual int __thiscall QtAbstractEditorFactoryBase::qt_metacall(enum QMetaObject::Call,int,void * *))
                  ?qt_metacall@QtAbstractPropertyBrowser@@UAEHW4Call@QMetaObject@@HPAPAX@Z (public: virtual int __thiscall QtAbstractPropertyBrowser::qt_metacall(enum QMetaObject::Call,int,void * *))
                  ?qt_metacall@QtAbstractPropertyManager@@UAEHW4Call@QMetaObject@@HPAPAX@Z (public: virtual int __thiscall QtAbstractPropertyManager::qt_metacall(enum QMetaObject::Call,int,void * *))
                  ?qt_metacall@QtBoolPropertyManager@@UAEHW4Call@QMetaObject@@HPAPAX@Z (public: virtual int __thiscall QtBoolPropertyManager::qt_metacall(enum QMetaObject::Call,int,void * *))
                  ?qt_metacall@QtButtonPropertyBrowser@@UAEHW4Call@QMetaObject@@HPAPAX@Z (public: virtual int __thiscall QtButtonPropertyBrowser::qt_metacall(enum QMetaObject::Call,int,void * *))
                  ?qt_metacall@QtCharEditorFactory@@UAEHW4Call@QMetaObject@@HPAPAX@Z (public: virtual int __thiscall QtCharEditorFactory::qt_metacall(enum QMetaObject::Call,int,void * *))
                  ?qt_metacall@QtCharPropertyManager@@UAEHW4Call@QMetaObject@@HPAPAX@Z (public: virtual int __thiscall QtCharPropertyManager::qt_metacall(enum QMetaObject::Call,int,void * *))
                  ?qt_metacall@QtCheckBoxFactory@@UAEHW4Call@QMetaObject@@HPAPAX@Z (public: virtual int __thiscall QtCheckBoxFactory::qt_metacall(enum QMetaObject::Call,int,void * *))
                  ?qt_metacall@QtColorEditorFactory@@UAEHW4Call@QMetaObject@@HPAPAX@Z (public: virtual int __thiscall QtColorEditorFactory::qt_metacall(enum QMetaObject::Call,int,void * *))
                  ?qt_metacall@QtColorPropertyManager@@UAEHW4Call@QMetaObject@@HPAPAX@Z (public: virtual int __thiscall QtColorPropertyManager::qt_metacall(enum QMetaObject::Call,int,void * *))
                  ?qt_metacall@QtCursorEditorFactory@@UAEHW4Call@QMetaObject@@HPAPAX@Z (public: virtual int __thiscall QtCursorEditorFactory::qt_metacall(enum QMetaObject::Call,int,void * *))
                  ?qt_metacall@QtCursorPropertyManager@@UAEHW4Call@QMetaObject@@HPAPAX@Z (public: virtual int __thiscall QtCursorPropertyManager::qt_metacall(enum QMetaObject::Call,int,void * *))
                  ?qt_metacall@QtDateEditFactory@@UAEHW4Call@QMetaObject@@HPAPAX@Z (public: virtual int __thiscall QtDateEditFactory::qt_metacall(enum QMetaObject::Call,int,void * *))
                  ?qt_metacall@QtDatePropertyManager@@UAEHW4Call@QMetaObject@@HPAPAX@Z (public: virtual int __thiscall QtDatePropertyManager::qt_metacall(enum QMetaObject::Call,int,void * *))
                  ?qt_metacall@QtDateTimeEditFactory@@UAEHW4Call@QMetaObject@@HPAPAX@Z (public: virtual int __thiscall QtDateTimeEditFactory::qt_metacall(enum QMetaObject::Call,int,void * *))
                  ?qt_metacall@QtDateTimePropertyManager@@UAEHW4Call@QMetaObject@@HPAPAX@Z (public: virtual int __thiscall QtDateTimePropertyManager::qt_metacall(enum QMetaObject::Call,int,void * *))
                  ?qt_metacall@QtDoublePropertyManager@@UAEHW4Call@QMetaObject@@HPAPAX@Z (public: virtual int __thiscall QtDoublePropertyManager::qt_metacall(enum QMetaObject::Call,int,void * *))
                  ?qt_metacall@QtDoubleSpinBoxFactory@@UAEHW4Call@QMetaObject@@HPAPAX@Z (public: virtual int __thiscall QtDoubleSpinBoxFactory::qt_metacall(enum QMetaObject::Call,int,void * *))
                  ?qt_metacall@QtEnumEditorFactory@@UAEHW4Call@QMetaObject@@HPAPAX@Z (public: virtual int __thiscall QtEnumEditorFactory::qt_metacall(enum QMetaObject::Call,int,void * *))
                  ?qt_metacall@QtEnumPropertyManager@@UAEHW4Call@QMetaObject@@HPAPAX@Z (public: virtual int __thiscall QtEnumPropertyManager::qt_metacall(enum QMetaObject::Call,int,void * *))
                  ?qt_metacall@QtFlagPropertyManager@@UAEHW4Call@QMetaObject@@HPAPAX@Z (public: virtual int __thiscall QtFlagPropertyManager::qt_metacall(enum QMetaObject::Call,int,void * *))
                  ?qt_metacall@QtFontEditorFactory@@UAEHW4Call@QMetaObject@@HPAPAX@Z (public: virtual int __thiscall QtFontEditorFactory::qt_metacall(enum QMetaObject::Call,int,void * *))
                  ?qt_metacall@QtFontPropertyManager@@UAEHW4Call@QMetaObject@@HPAPAX@Z (public: virtual int __thiscall QtFontPropertyManager::qt_metacall(enum QMetaObject::Call,int,void * *))
                  ?qt_metacall@QtGroupBoxPropertyBrowser@@UAEHW4Call@QMetaObject@@HPAPAX@Z (public: virtual int __thiscall QtGroupBoxPropertyBrowser::qt_metacall(enum QMetaObject::Call,int,void * *))
                  ?qt_metacall@QtGroupPropertyManager@@UAEHW4Call@QMetaObject@@HPAPAX@Z (public: virtual int __thiscall QtGroupPropertyManager::qt_metacall(enum QMetaObject::Call,int,void * *))
                  ?qt_metacall@QtIntPropertyManager@@UAEHW4Call@QMetaObject@@HPAPAX@Z (public: virtual int __thiscall QtIntPropertyManager::qt_metacall(enum QMetaObject::Call,int,void * *))
                  ?qt_metacall@QtKeySequenceEditorFactory@@UAEHW4Call@QMetaObject@@HPAPAX@Z (public: virtual int __thiscall QtKeySequenceEditorFactory::qt_metacall(enum QMetaObject::Call,int,void * *))
                  ?qt_metacall@QtKeySequencePropertyManager@@UAEHW4Call@QMetaObject@@HPAPAX@Z (public: virtual int __thiscall QtKeySequencePropertyManager::qt_metacall(enum QMetaObject::Call,int,void * *))
                  ?qt_metacall@QtLineEditFactory@@UAEHW4Call@QMetaObject@@HPAPAX@Z (public: virtual int __thiscall QtLineEditFactory::qt_metacall(enum QMetaObject::Call,int,void * *))
                  ?qt_metacall@QtLocalePropertyManager@@UAEHW4Call@QMetaObject@@HPAPAX@Z (public: virtual int __thiscall QtLocalePropertyManager::qt_metacall(enum QMetaObject::Call,int,void * *))
                  ?qt_metacall@QtPointFPropertyManager@@UAEHW4Call@QMetaObject@@HPAPAX@Z (public: virtual int __thiscall QtPointFPropertyManager::qt_metacall(enum QMetaObject::Call,int,void * *))
                  ?qt_metacall@QtPointPropertyManager@@UAEHW4Call@QMetaObject@@HPAPAX@Z (public: virtual int __thiscall QtPointPropertyManager::qt_metacall(enum QMetaObject::Call,int,void * *))
                  ?qt_metacall@QtRectFPropertyManager@@UAEHW4Call@QMetaObject@@HPAPAX@Z (public: virtual int __thiscall QtRectFPropertyManager::qt_metacall(enum QMetaObject::Call,int,void * *))
                  ?qt_metacall@QtRectPropertyManager@@UAEHW4Call@QMetaObject@@HPAPAX@Z (public: virtual int __thiscall QtRectPropertyManager::qt_metacall(enum QMetaObject::Call,int,void * *))
                  ?qt_metacall@QtScrollBarFactory@@UAEHW4Call@QMetaObject@@HPAPAX@Z (public: virtual int __thiscall QtScrollBarFactory::qt_metacall(enum QMetaObject::Call,int,void * *))
                  ?qt_metacall@QtSizeFPropertyManager@@UAEHW4Call@QMetaObject@@HPAPAX@Z (public: virtual int __thiscall QtSizeFPropertyManager::qt_metacall(enum QMetaObject::Call,int,void * *))
                  ?qt_metacall@QtSizePolicyPropertyManager@@UAEHW4Call@QMetaObject@@HPAPAX@Z (public: virtual int __thiscall QtSizePolicyPropertyManager::qt_metacall(enum QMetaObject::Call,int,void * *))
                  ?qt_metacall@QtSizePropertyManager@@UAEHW4Call@QMetaObject@@HPAPAX@Z (public: virtual int __thiscall QtSizePropertyManager::qt_metacall(enum QMetaObject::Call,int,void * *))
                  ?qt_metacall@QtSliderFactory@@UAEHW4Call@QMetaObject@@HPAPAX@Z (public: virtual int __thiscall QtSliderFactory::qt_metacall(enum QMetaObject::Call,int,void * *))
                  ?qt_metacall@QtSpinBoxFactory@@UAEHW4Call@QMetaObject@@HPAPAX@Z (public: virtual int __thiscall QtSpinBoxFactory::qt_metacall(enum QMetaObject::Call,int,void * *))
                  ?qt_metacall@QtStringPropertyManager@@UAEHW4Call@QMetaObject@@HPAPAX@Z (public: virtual int __thiscall QtStringPropertyManager::qt_metacall(enum QMetaObject::Call,int,void * *))
                  ?qt_metacall@QtTimeEditFactory@@UAEHW4Call@QMetaObject@@HPAPAX@Z (public: virtual int __thiscall QtTimeEditFactory::qt_metacall(enum QMetaObject::Call,int,void * *))
                  ?qt_metacall@QtTimePropertyManager@@UAEHW4Call@QMetaObject@@HPAPAX@Z (public: virtual int __thiscall QtTimePropertyManager::qt_metacall(enum QMetaObject::Call,int,void * *))
                  ?qt_metacall@QtTreePropertyBrowser@@UAEHW4Call@QMetaObject@@HPAPAX@Z (public: virtual int __thiscall QtTreePropertyBrowser::qt_metacall(enum QMetaObject::Call,int,void * *))
                  ?qt_metacall@QtVariantEditorFactory@@UAEHW4Call@QMetaObject@@HPAPAX@Z (public: virtual int __thiscall QtVariantEditorFactory::qt_metacall(enum QMetaObject::Call,int,void * *))
                  ?qt_metacall@QtVariantPropertyManager@@UAEHW4Call@QMetaObject@@HPAPAX@Z (public: virtual int __thiscall QtVariantPropertyManager::qt_metacall(enum QMetaObject::Call,int,void * *))
                  ?qt_metacast@QtAbstractEditorFactoryBase@@UAEPAXPBD@Z (public: virtual void * __thiscall QtAbstractEditorFactoryBase::qt_metacast(char const *))
                  ?qt_metacast@QtAbstractPropertyBrowser@@UAEPAXPBD@Z (public: virtual void * __thiscall QtAbstractPropertyBrowser::qt_metacast(char const *))
                  ?qt_metacast@QtAbstractPropertyManager@@UAEPAXPBD@Z (public: virtual void * __thiscall QtAbstractPropertyManager::qt_metacast(char const *))
                  ?qt_metacast@QtBoolPropertyManager@@UAEPAXPBD@Z (public: virtual void * __thiscall QtBoolPropertyManager::qt_metacast(char const *))
                  ?qt_metacast@QtButtonPropertyBrowser@@UAEPAXPBD@Z (public: virtual void * __thiscall QtButtonPropertyBrowser::qt_metacast(char const *))
                  ?qt_metacast@QtCharEditorFactory@@UAEPAXPBD@Z (public: virtual void * __thiscall QtCharEditorFactory::qt_metacast(char const *))
                  ?qt_metacast@QtCharPropertyManager@@UAEPAXPBD@Z (public: virtual void * __thiscall QtCharPropertyManager::qt_metacast(char const *))
                  ?qt_metacast@QtCheckBoxFactory@@UAEPAXPBD@Z (public: virtual void * __thiscall QtCheckBoxFactory::qt_metacast(char const *))
                  ?qt_metacast@QtColorEditorFactory@@UAEPAXPBD@Z (public: virtual void * __thiscall QtColorEditorFactory::qt_metacast(char const *))
                  ?qt_metacast@QtColorPropertyManager@@UAEPAXPBD@Z (public: virtual void * __thiscall QtColorPropertyManager::qt_metacast(char const *))
                  ?qt_metacast@QtCursorEditorFactory@@UAEPAXPBD@Z (public: virtual void * __thiscall QtCursorEditorFactory::qt_metacast(char const *))
                  ?qt_metacast@QtCursorPropertyManager@@UAEPAXPBD@Z (public: virtual void * __thiscall QtCursorPropertyManager::qt_metacast(char const *))
                  ?qt_metacast@QtDateEditFactory@@UAEPAXPBD@Z (public: virtual void * __thiscall QtDateEditFactory::qt_metacast(char const *))
                  ?qt_metacast@QtDatePropertyManager@@UAEPAXPBD@Z (public: virtual void * __thiscall QtDatePropertyManager::qt_metacast(char const *))
                  ?qt_metacast@QtDateTimeEditFactory@@UAEPAXPBD@Z (public: virtual void * __thiscall QtDateTimeEditFactory::qt_metacast(char const *))
                  ?qt_metacast@QtDateTimePropertyManager@@UAEPAXPBD@Z (public: virtual void * __thiscall QtDateTimePropertyManager::qt_metacast(char const *))
                  ?qt_metacast@QtDoublePropertyManager@@UAEPAXPBD@Z (public: virtual void * __thiscall QtDoublePropertyManager::qt_metacast(char const *))
                  ?qt_metacast@QtDoubleSpinBoxFactory@@UAEPAXPBD@Z (public: virtual void * __thiscall QtDoubleSpinBoxFactory::qt_metacast(char const *))
                  ?qt_metacast@QtEnumEditorFactory@@UAEPAXPBD@Z (public: virtual void * __thiscall QtEnumEditorFactory::qt_metacast(char const *))
                  ?qt_metacast@QtEnumPropertyManager@@UAEPAXPBD@Z (public: virtual void * __thiscall QtEnumPropertyManager::qt_metacast(char const *))
                  ?qt_metacast@QtFlagPropertyManager@@UAEPAXPBD@Z (public: virtual void * __thiscall QtFlagPropertyManager::qt_metacast(char const *))
                  ?qt_metacast@QtFontEditorFactory@@UAEPAXPBD@Z (public: virtual void * __thiscall QtFontEditorFactory::qt_metacast(char const *))
                  ?qt_metacast@QtFontPropertyManager@@UAEPAXPBD@Z (public: virtual void * __thiscall QtFontPropertyManager::qt_metacast(char const *))
                  ?qt_metacast@QtGroupBoxPropertyBrowser@@UAEPAXPBD@Z (public: virtual void * __thiscall QtGroupBoxPropertyBrowser::qt_metacast(char const *))
                  ?qt_metacast@QtGroupPropertyManager@@UAEPAXPBD@Z (public: virtual void * __thiscall QtGroupPropertyManager::qt_metacast(char const *))
                  ?qt_metacast@QtIntPropertyManager@@UAEPAXPBD@Z (public: virtual void * __thiscall QtIntPropertyManager::qt_metacast(char const *))
                  ?qt_metacast@QtKeySequenceEditorFactory@@UAEPAXPBD@Z (public: virtual void * __thiscall QtKeySequenceEditorFactory::qt_metacast(char const *))
                  ?qt_metacast@QtKeySequencePropertyManager@@UAEPAXPBD@Z (public: virtual void * __thiscall QtKeySequencePropertyManager::qt_metacast(char const *))
                  ?qt_metacast@QtLineEditFactory@@UAEPAXPBD@Z (public: virtual void * __thiscall QtLineEditFactory::qt_metacast(char const *))
                  ?qt_metacast@QtLocalePropertyManager@@UAEPAXPBD@Z (public: virtual void * __thiscall QtLocalePropertyManager::qt_metacast(char const *))
                  ?qt_metacast@QtPointFPropertyManager@@UAEPAXPBD@Z (public: virtual void * __thiscall QtPointFPropertyManager::qt_metacast(char const *))
                  ?qt_metacast@QtPointPropertyManager@@UAEPAXPBD@Z (public: virtual void * __thiscall QtPointPropertyManager::qt_metacast(char const *))
                  ?qt_metacast@QtRectFPropertyManager@@UAEPAXPBD@Z (public: virtual void * __thiscall QtRectFPropertyManager::qt_metacast(char const *))
                  ?qt_metacast@QtRectPropertyManager@@UAEPAXPBD@Z (public: virtual void * __thiscall QtRectPropertyManager::qt_metacast(char const *))
                  ?qt_metacast@QtScrollBarFactory@@UAEPAXPBD@Z (public: virtual void * __thiscall QtScrollBarFactory::qt_metacast(char const *))
                  ?qt_metacast@QtSizeFPropertyManager@@UAEPAXPBD@Z (public: virtual void * __thiscall QtSizeFPropertyManager::qt_metacast(char const *))
                  ?qt_metacast@QtSizePolicyPropertyManager@@UAEPAXPBD@Z (public: virtual void * __thiscall QtSizePolicyPropertyManager::qt_metacast(char const *))
                  ?qt_metacast@QtSizePropertyManager@@UAEPAXPBD@Z (public: virtual void * __thiscall QtSizePropertyManager::qt_metacast(char const *))
                  ?qt_metacast@QtSliderFactory@@UAEPAXPBD@Z (public: virtual void * __thiscall QtSliderFactory::qt_metacast(char const *))
                  ?qt_metacast@QtSpinBoxFactory@@UAEPAXPBD@Z (public: virtual void * __thiscall QtSpinBoxFactory::qt_metacast(char const *))
                  ?qt_metacast@QtStringPropertyManager@@UAEPAXPBD@Z (public: virtual void * __thiscall QtStringPropertyManager::qt_metacast(char const *))
                  ?qt_metacast@QtTimeEditFactory@@UAEPAXPBD@Z (public: virtual void * __thiscall QtTimeEditFactory::qt_metacast(char const *))
                  ?qt_metacast@QtTimePropertyManager@@UAEPAXPBD@Z (public: virtual void * __thiscall QtTimePropertyManager::qt_metacast(char const *))
                  ?qt_metacast@QtTreePropertyBrowser@@UAEPAXPBD@Z (public: virtual void * __thiscall QtTreePropertyBrowser::qt_metacast(char const *))
                  ?qt_metacast@QtVariantEditorFactory@@UAEPAXPBD@Z (public: virtual void * __thiscall QtVariantEditorFactory::qt_metacast(char const *))
                  ?qt_metacast@QtVariantPropertyManager@@UAEPAXPBD@Z (public: virtual void * __thiscall QtVariantPropertyManager::qt_metacast(char const *))
                  ?rangeChanged@QtDatePropertyManager@@IAEXPAVQtProperty@@ABVQDate@@1@Z (protected: void __thiscall QtDatePropertyManager::rangeChanged(class QtProperty *,class QDate const &,class QDate const &))
                  ?rangeChanged@QtDoublePropertyManager@@IAEXPAVQtProperty@@NN@Z (protected: void __thiscall QtDoublePropertyManager::rangeChanged(class QtProperty *,double,double))
                  ?rangeChanged@QtIntPropertyManager@@IAEXPAVQtProperty@@HH@Z (protected: void __thiscall QtIntPropertyManager::rangeChanged(class QtProperty *,int,int))
                  ?rangeChanged@QtSizeFPropertyManager@@IAEXPAVQtProperty@@ABVQSizeF@@1@Z (protected: void __thiscall QtSizeFPropertyManager::rangeChanged(class QtProperty *,class QSizeF const &,class QSizeF const &))
                  ?rangeChanged@QtSizePropertyManager@@IAEXPAVQtProperty@@ABVQSize@@1@Z (protected: void __thiscall QtSizePropertyManager::rangeChanged(class QtProperty *,class QSize const &,class QSize const &))
                  ?regExp@QtStringPropertyManager@@QBE?AVQRegExp@@PBVQtProperty@@@Z (public: class QRegExp __thiscall QtStringPropertyManager::regExp(class QtProperty const *)const )
                  ?regExpChanged@QtStringPropertyManager@@IAEXPAVQtProperty@@ABVQRegExp@@@Z (protected: void __thiscall QtStringPropertyManager::regExpChanged(class QtProperty *,class QRegExp const &))
                  ?removeProperty@QtAbstractPropertyBrowser@@QAEXPAVQtProperty@@@Z (public: void __thiscall QtAbstractPropertyBrowser::removeProperty(class QtProperty *))
                  ?removePropertyManager@?$QtAbstractEditorFactory@VQtBoolPropertyManager@@@@QAEXPAVQtBoolPropertyManager@@@Z (public: void __thiscall QtAbstractEditorFactory<class QtBoolPropertyManager>::removePropertyManager(class QtBoolPropertyManager *))
                  ?removePropertyManager@?$QtAbstractEditorFactory@VQtCharPropertyManager@@@@QAEXPAVQtCharPropertyManager@@@Z (public: void __thiscall QtAbstractEditorFactory<class QtCharPropertyManager>::removePropertyManager(class QtCharPropertyManager *))
                  ?removePropertyManager@?$QtAbstractEditorFactory@VQtColorPropertyManager@@@@QAEXPAVQtColorPropertyManager@@@Z (public: void __thiscall QtAbstractEditorFactory<class QtColorPropertyManager>::removePropertyManager(class QtColorPropertyManager *))
                  ?removePropertyManager@?$QtAbstractEditorFactory@VQtCursorPropertyManager@@@@QAEXPAVQtCursorPropertyManager@@@Z (public: void __thiscall QtAbstractEditorFactory<class QtCursorPropertyManager>::removePropertyManager(class QtCursorPropertyManager *))
                  ?removePropertyManager@?$QtAbstractEditorFactory@VQtDatePropertyManager@@@@QAEXPAVQtDatePropertyManager@@@Z (public: void __thiscall QtAbstractEditorFactory<class QtDatePropertyManager>::removePropertyManager(class QtDatePropertyManager *))
                  ?removePropertyManager@?$QtAbstractEditorFactory@VQtDateTimePropertyManager@@@@QAEXPAVQtDateTimePropertyManager@@@Z (public: void __thiscall QtAbstractEditorFactory<class QtDateTimePropertyManager>::removePropertyManager(class QtDateTimePropertyManager *))
                  ?removePropertyManager@?$QtAbstractEditorFactory@VQtDoublePropertyManager@@@@QAEXPAVQtDoublePropertyManager@@@Z (public: void __thiscall QtAbstractEditorFactory<class QtDoublePropertyManager>::removePropertyManager(class QtDoublePropertyManager *))
                  ?removePropertyManager@?$QtAbstractEditorFactory@VQtEnumPropertyManager@@@@QAEXPAVQtEnumPropertyManager@@@Z (public: void __thiscall QtAbstractEditorFactory<class QtEnumPropertyManager>::removePropertyManager(class QtEnumPropertyManager *))
                  ?removePropertyManager@?$QtAbstractEditorFactory@VQtFontPropertyManager@@@@QAEXPAVQtFontPropertyManager@@@Z (public: void __thiscall QtAbstractEditorFactory<class QtFontPropertyManager>::removePropertyManager(class QtFontPropertyManager *))
                  ?removePropertyManager@?$QtAbstractEditorFactory@VQtIntPropertyManager@@@@QAEXPAVQtIntPropertyManager@@@Z (public: void __thiscall QtAbstractEditorFactory<class QtIntPropertyManager>::removePropertyManager(class QtIntPropertyManager *))
                  ?removePropertyManager@?$QtAbstractEditorFactory@VQtKeySequencePropertyManager@@@@QAEXPAVQtKeySequencePropertyManager@@@Z (public: void __thiscall QtAbstractEditorFactory<class QtKeySequencePropertyManager>::removePropertyManager(class QtKeySequencePropertyManager *))
                  ?removePropertyManager@?$QtAbstractEditorFactory@VQtStringPropertyManager@@@@QAEXPAVQtStringPropertyManager@@@Z (public: void __thiscall QtAbstractEditorFactory<class QtStringPropertyManager>::removePropertyManager(class QtStringPropertyManager *))
                  ?removePropertyManager@?$QtAbstractEditorFactory@VQtTimePropertyManager@@@@QAEXPAVQtTimePropertyManager@@@Z (public: void __thiscall QtAbstractEditorFactory<class QtTimePropertyManager>::removePropertyManager(class QtTimePropertyManager *))
                  ?removePropertyManager@?$QtAbstractEditorFactory@VQtVariantPropertyManager@@@@QAEXPAVQtVariantPropertyManager@@@Z (public: void __thiscall QtAbstractEditorFactory<class QtVariantPropertyManager>::removePropertyManager(class QtVariantPropertyManager *))
                  ?removeSubProperty@QtProperty@@QAEXPAV1@@Z (public: void __thiscall QtProperty::removeSubProperty(class QtProperty *))
                  ?resizeMode@QtTreePropertyBrowser@@QBE?AW4ResizeMode@1@XZ (public: enum QtTreePropertyBrowser::ResizeMode __thiscall QtTreePropertyBrowser::resizeMode(void)const )
                  ?rootIsDecorated@QtTreePropertyBrowser@@QBE_NXZ (public: bool __thiscall QtTreePropertyBrowser::rootIsDecorated(void)const )
                  ?setAlternatingRowColors@QtTreePropertyBrowser@@QAEX_N@Z (public: void __thiscall QtTreePropertyBrowser::setAlternatingRowColors(bool))
                  ?setAttribute@QtVariantProperty@@QAEXABVQString@@ABVQVariant@@@Z (public: void __thiscall QtVariantProperty::setAttribute(class QString const &,class QVariant const &))
                  ?setAttribute@QtVariantPropertyManager@@UAEXPAVQtProperty@@ABVQString@@ABVQVariant@@@Z (public: virtual void __thiscall QtVariantPropertyManager::setAttribute(class QtProperty *,class QString const &,class QVariant const &))
                  ?setBackgroundColor@QtTreePropertyBrowser@@QAEXPAVQtBrowserItem@@ABVQColor@@@Z (public: void __thiscall QtTreePropertyBrowser::setBackgroundColor(class QtBrowserItem *,class QColor const &))
                  ?setConstraint@QtRectFPropertyManager@@QAEXPAVQtProperty@@ABVQRectF@@@Z (public: void __thiscall QtRectFPropertyManager::setConstraint(class QtProperty *,class QRectF const &))
                  ?setConstraint@QtRectPropertyManager@@QAEXPAVQtProperty@@ABVQRect@@@Z (public: void __thiscall QtRectPropertyManager::setConstraint(class QtProperty *,class QRect const &))
                  ?setCurrentItem@QtAbstractPropertyBrowser@@QAEXPAVQtBrowserItem@@@Z (public: void __thiscall QtAbstractPropertyBrowser::setCurrentItem(class QtBrowserItem *))
                  ?setDecimals@QtDoublePropertyManager@@QAEXPAVQtProperty@@H@Z (public: void __thiscall QtDoublePropertyManager::setDecimals(class QtProperty *,int))
                  ?setDecimals@QtPointFPropertyManager@@QAEXPAVQtProperty@@H@Z (public: void __thiscall QtPointFPropertyManager::setDecimals(class QtProperty *,int))
                  ?setDecimals@QtRectFPropertyManager@@QAEXPAVQtProperty@@H@Z (public: void __thiscall QtRectFPropertyManager::setDecimals(class QtProperty *,int))
                  ?setDecimals@QtSizeFPropertyManager@@QAEXPAVQtProperty@@H@Z (public: void __thiscall QtSizeFPropertyManager::setDecimals(class QtProperty *,int))
                  ?setEnabled@QtProperty@@QAEX_N@Z (public: void __thiscall QtProperty::setEnabled(bool))
                  ?setEnumIcons@QtEnumPropertyManager@@QAEXPAVQtProperty@@ABV?$QMap@HVQIcon@@@@@Z (public: void __thiscall QtEnumPropertyManager::setEnumIcons(class QtProperty *,class QMap<int,class QIcon> const &))
                  ?setEnumNames@QtEnumPropertyManager@@QAEXPAVQtProperty@@ABVQStringList@@@Z (public: void __thiscall QtEnumPropertyManager::setEnumNames(class QtProperty *,class QStringList const &))
                  ?setExpanded@QtButtonPropertyBrowser@@QAEXPAVQtBrowserItem@@_N@Z (public: void __thiscall QtButtonPropertyBrowser::setExpanded(class QtBrowserItem *,bool))
                  ?setExpanded@QtTreePropertyBrowser@@QAEXPAVQtBrowserItem@@_N@Z (public: void __thiscall QtTreePropertyBrowser::setExpanded(class QtBrowserItem *,bool))
                  ?setFlagNames@QtFlagPropertyManager@@QAEXPAVQtProperty@@ABVQStringList@@@Z (public: void __thiscall QtFlagPropertyManager::setFlagNames(class QtProperty *,class QStringList const &))
                  ?setHeaderVisible@QtTreePropertyBrowser@@QAEX_N@Z (public: void __thiscall QtTreePropertyBrowser::setHeaderVisible(bool))
                  ?setIndentation@QtTreePropertyBrowser@@QAEXH@Z (public: void __thiscall QtTreePropertyBrowser::setIndentation(int))
                  ?setItemVisible@QtTreePropertyBrowser@@QAEXPAVQtBrowserItem@@_N@Z (public: void __thiscall QtTreePropertyBrowser::setItemVisible(class QtBrowserItem *,bool))
                  ?setMaximum@QtDatePropertyManager@@QAEXPAVQtProperty@@ABVQDate@@@Z (public: void __thiscall QtDatePropertyManager::setMaximum(class QtProperty *,class QDate const &))
                  ?setMaximum@QtDoublePropertyManager@@QAEXPAVQtProperty@@N@Z (public: void __thiscall QtDoublePropertyManager::setMaximum(class QtProperty *,double))
                  ?setMaximum@QtIntPropertyManager@@QAEXPAVQtProperty@@H@Z (public: void __thiscall QtIntPropertyManager::setMaximum(class QtProperty *,int))
                  ?setMaximum@QtSizeFPropertyManager@@QAEXPAVQtProperty@@ABVQSizeF@@@Z (public: void __thiscall QtSizeFPropertyManager::setMaximum(class QtProperty *,class QSizeF const &))
                  ?setMaximum@QtSizePropertyManager@@QAEXPAVQtProperty@@ABVQSize@@@Z (public: void __thiscall QtSizePropertyManager::setMaximum(class QtProperty *,class QSize const &))
                  ?setMinimum@QtDatePropertyManager@@QAEXPAVQtProperty@@ABVQDate@@@Z (public: void __thiscall QtDatePropertyManager::setMinimum(class QtProperty *,class QDate const &))
                  ?setMinimum@QtDoublePropertyManager@@QAEXPAVQtProperty@@N@Z (public: void __thiscall QtDoublePropertyManager::setMinimum(class QtProperty *,double))
                  ?setMinimum@QtIntPropertyManager@@QAEXPAVQtProperty@@H@Z (public: void __thiscall QtIntPropertyManager::setMinimum(class QtProperty *,int))
                  ?setMinimum@QtSizeFPropertyManager@@QAEXPAVQtProperty@@ABVQSizeF@@@Z (public: void __thiscall QtSizeFPropertyManager::setMinimum(class QtProperty *,class QSizeF const &))
                  ?setMinimum@QtSizePropertyManager@@QAEXPAVQtProperty@@ABVQSize@@@Z (public: void __thiscall QtSizePropertyManager::setMinimum(class QtProperty *,class QSize const &))
                  ?setModified@QtProperty@@QAEX_N@Z (public: void __thiscall QtProperty::setModified(bool))
                  ?setPropertiesWithoutValueMarked@QtTreePropertyBrowser@@QAEX_N@Z (public: void __thiscall QtTreePropertyBrowser::setPropertiesWithoutValueMarked(bool))
                  ?setPropertyName@QtProperty@@QAEXABVQString@@@Z (public: void __thiscall QtProperty::setPropertyName(class QString const &))
                  ?setRange@QtDatePropertyManager@@QAEXPAVQtProperty@@ABVQDate@@1@Z (public: void __thiscall QtDatePropertyManager::setRange(class QtProperty *,class QDate const &,class QDate const &))
                  ?setRange@QtDoublePropertyManager@@QAEXPAVQtProperty@@NN@Z (public: void __thiscall QtDoublePropertyManager::setRange(class QtProperty *,double,double))
                  ?setRange@QtIntPropertyManager@@QAEXPAVQtProperty@@HH@Z (public: void __thiscall QtIntPropertyManager::setRange(class QtProperty *,int,int))
                  ?setRange@QtSizeFPropertyManager@@QAEXPAVQtProperty@@ABVQSizeF@@1@Z (public: void __thiscall QtSizeFPropertyManager::setRange(class QtProperty *,class QSizeF const &,class QSizeF const &))
                  ?setRange@QtSizePropertyManager@@QAEXPAVQtProperty@@ABVQSize@@1@Z (public: void __thiscall QtSizePropertyManager::setRange(class QtProperty *,class QSize const &,class QSize const &))
                  ?setRegExp@QtStringPropertyManager@@QAEXPAVQtProperty@@ABVQRegExp@@@Z (public: void __thiscall QtStringPropertyManager::setRegExp(class QtProperty *,class QRegExp const &))
                  ?setResizeMode@QtTreePropertyBrowser@@QAEXW4ResizeMode@1@@Z (public: void __thiscall QtTreePropertyBrowser::setResizeMode(enum QtTreePropertyBrowser::ResizeMode))
                  ?setRootIsDecorated@QtTreePropertyBrowser@@QAEX_N@Z (public: void __thiscall QtTreePropertyBrowser::setRootIsDecorated(bool))
                  ?setSingleStep@QtDoublePropertyManager@@QAEXPAVQtProperty@@N@Z (public: void __thiscall QtDoublePropertyManager::setSingleStep(class QtProperty *,double))
                  ?setSingleStep@QtIntPropertyManager@@QAEXPAVQtProperty@@H@Z (public: void __thiscall QtIntPropertyManager::setSingleStep(class QtProperty *,int))
                  ?setSplitterPosition@QtTreePropertyBrowser@@QAEXH@Z (public: void __thiscall QtTreePropertyBrowser::setSplitterPosition(int))
                  ?setStatusTip@QtProperty@@QAEXABVQString@@@Z (public: void __thiscall QtProperty::setStatusTip(class QString const &))
                  ?setToolTip@QtProperty@@QAEXABVQString@@@Z (public: void __thiscall QtProperty::setToolTip(class QString const &))
                  ?setValue@QtBoolPropertyManager@@QAEXPAVQtProperty@@_N@Z (public: void __thiscall QtBoolPropertyManager::setValue(class QtProperty *,bool))
                  ?setValue@QtCharPropertyManager@@QAEXPAVQtProperty@@ABVQChar@@@Z (public: void __thiscall QtCharPropertyManager::setValue(class QtProperty *,class QChar const &))
                  ?setValue@QtColorPropertyManager@@QAEXPAVQtProperty@@ABVQColor@@@Z (public: void __thiscall QtColorPropertyManager::setValue(class QtProperty *,class QColor const &))
                  ?setValue@QtCursorPropertyManager@@QAEXPAVQtProperty@@ABVQCursor@@@Z (public: void __thiscall QtCursorPropertyManager::setValue(class QtProperty *,class QCursor const &))
                  ?setValue@QtDatePropertyManager@@QAEXPAVQtProperty@@ABVQDate@@@Z (public: void __thiscall QtDatePropertyManager::setValue(class QtProperty *,class QDate const &))
                  ?setValue@QtDateTimePropertyManager@@QAEXPAVQtProperty@@ABVQDateTime@@@Z (public: void __thiscall QtDateTimePropertyManager::setValue(class QtProperty *,class QDateTime const &))
                  ?setValue@QtDoublePropertyManager@@QAEXPAVQtProperty@@N@Z (public: void __thiscall QtDoublePropertyManager::setValue(class QtProperty *,double))
                  ?setValue@QtEnumPropertyManager@@QAEXPAVQtProperty@@H@Z (public: void __thiscall QtEnumPropertyManager::setValue(class QtProperty *,int))
                  ?setValue@QtFlagPropertyManager@@QAEXPAVQtProperty@@H@Z (public: void __thiscall QtFlagPropertyManager::setValue(class QtProperty *,int))
                  ?setValue@QtFontPropertyManager@@QAEXPAVQtProperty@@ABVQFont@@@Z (public: void __thiscall QtFontPropertyManager::setValue(class QtProperty *,class QFont const &))
                  ?setValue@QtIntPropertyManager@@QAEXPAVQtProperty@@H@Z (public: void __thiscall QtIntPropertyManager::setValue(class QtProperty *,int))
                  ?setValue@QtKeySequencePropertyManager@@QAEXPAVQtProperty@@ABVQKeySequence@@@Z (public: void __thiscall QtKeySequencePropertyManager::setValue(class QtProperty *,class QKeySequence const &))
                  ?setValue@QtLocalePropertyManager@@QAEXPAVQtProperty@@ABVQLocale@@@Z (public: void __thiscall QtLocalePropertyManager::setValue(class QtProperty *,class QLocale const &))
                  ?setValue@QtPointFPropertyManager@@QAEXPAVQtProperty@@ABVQPointF@@@Z (public: void __thiscall QtPointFPropertyManager::setValue(class QtProperty *,class QPointF const &))
                  ?setValue@QtPointPropertyManager@@QAEXPAVQtProperty@@ABVQPoint@@@Z (public: void __thiscall QtPointPropertyManager::setValue(class QtProperty *,class QPoint const &))
                  ?setValue@QtRectFPropertyManager@@QAEXPAVQtProperty@@ABVQRectF@@@Z (public: void __thiscall QtRectFPropertyManager::setValue(class QtProperty *,class QRectF const &))
                  ?setValue@QtRectPropertyManager@@QAEXPAVQtProperty@@ABVQRect@@@Z (public: void __thiscall QtRectPropertyManager::setValue(class QtProperty *,class QRect const &))
                  ?setValue@QtSizeFPropertyManager@@QAEXPAVQtProperty@@ABVQSizeF@@@Z (public: void __thiscall QtSizeFPropertyManager::setValue(class QtProperty *,class QSizeF const &))
                  ?setValue@QtSizePolicyPropertyManager@@QAEXPAVQtProperty@@ABVQSizePolicy@@@Z (public: void __thiscall QtSizePolicyPropertyManager::setValue(class QtProperty *,class QSizePolicy const &))
                  ?setValue@QtSizePropertyManager@@QAEXPAVQtProperty@@ABVQSize@@@Z (public: void __thiscall QtSizePropertyManager::setValue(class QtProperty *,class QSize const &))
                  ?setValue@QtStringPropertyManager@@QAEXPAVQtProperty@@ABVQString@@@Z (public: void __thiscall QtStringPropertyManager::setValue(class QtProperty *,class QString const &))
                  ?setValue@QtTimePropertyManager@@QAEXPAVQtProperty@@ABVQTime@@@Z (public: void __thiscall QtTimePropertyManager::setValue(class QtProperty *,class QTime const &))
                  ?setValue@QtVariantProperty@@QAEXABVQVariant@@@Z (public: void __thiscall QtVariantProperty::setValue(class QVariant const &))
                  ?setValue@QtVariantPropertyManager@@UAEXPAVQtProperty@@ABVQVariant@@@Z (public: virtual void __thiscall QtVariantPropertyManager::setValue(class QtProperty *,class QVariant const &))
                  ?setWhatsThis@QtProperty@@QAEXABVQString@@@Z (public: void __thiscall QtProperty::setWhatsThis(class QString const &))
                  ?singleStep@QtDoublePropertyManager@@QBENPBVQtProperty@@@Z (public: double __thiscall QtDoublePropertyManager::singleStep(class QtProperty const *)const )
                  ?singleStep@QtIntPropertyManager@@QBEHPBVQtProperty@@@Z (public: int __thiscall QtIntPropertyManager::singleStep(class QtProperty const *)const )
                  ?singleStepChanged@QtDoublePropertyManager@@IAEXPAVQtProperty@@N@Z (protected: void __thiscall QtDoublePropertyManager::singleStepChanged(class QtProperty *,double))
                  ?singleStepChanged@QtIntPropertyManager@@IAEXPAVQtProperty@@H@Z (protected: void __thiscall QtIntPropertyManager::singleStepChanged(class QtProperty *,int))
                  ?splitterPosition@QtTreePropertyBrowser@@QBEHXZ (public: int __thiscall QtTreePropertyBrowser::splitterPosition(void)const )
                  ?staticMetaObject@QtAbstractEditorFactoryBase@@2UQMetaObject@@B (public: static struct QMetaObject const QtAbstractEditorFactoryBase::staticMetaObject)
                  ?staticMetaObject@QtAbstractPropertyBrowser@@2UQMetaObject@@B (public: static struct QMetaObject const QtAbstractPropertyBrowser::staticMetaObject)
                  ?staticMetaObject@QtAbstractPropertyManager@@2UQMetaObject@@B (public: static struct QMetaObject const QtAbstractPropertyManager::staticMetaObject)
                  ?staticMetaObject@QtBoolPropertyManager@@2UQMetaObject@@B (public: static struct QMetaObject const QtBoolPropertyManager::staticMetaObject)
                  ?staticMetaObject@QtButtonPropertyBrowser@@2UQMetaObject@@B (public: static struct QMetaObject const QtButtonPropertyBrowser::staticMetaObject)
                  ?staticMetaObject@QtCharEditorFactory@@2UQMetaObject@@B (public: static struct QMetaObject const QtCharEditorFactory::staticMetaObject)
                  ?staticMetaObject@QtCharPropertyManager@@2UQMetaObject@@B (public: static struct QMetaObject const QtCharPropertyManager::staticMetaObject)
                  ?staticMetaObject@QtCheckBoxFactory@@2UQMetaObject@@B (public: static struct QMetaObject const QtCheckBoxFactory::staticMetaObject)
                  ?staticMetaObject@QtColorEditorFactory@@2UQMetaObject@@B (public: static struct QMetaObject const QtColorEditorFactory::staticMetaObject)
                  ?staticMetaObject@QtColorPropertyManager@@2UQMetaObject@@B (public: static struct QMetaObject const QtColorPropertyManager::staticMetaObject)
                  ?staticMetaObject@QtCursorEditorFactory@@2UQMetaObject@@B (public: static struct QMetaObject const QtCursorEditorFactory::staticMetaObject)
                  ?staticMetaObject@QtCursorPropertyManager@@2UQMetaObject@@B (public: static struct QMetaObject const QtCursorPropertyManager::staticMetaObject)
                  ?staticMetaObject@QtDateEditFactory@@2UQMetaObject@@B (public: static struct QMetaObject const QtDateEditFactory::staticMetaObject)
                  ?staticMetaObject@QtDatePropertyManager@@2UQMetaObject@@B (public: static struct QMetaObject const QtDatePropertyManager::staticMetaObject)
                  ?staticMetaObject@QtDateTimeEditFactory@@2UQMetaObject@@B (public: static struct QMetaObject const QtDateTimeEditFactory::staticMetaObject)
                  ?staticMetaObject@QtDateTimePropertyManager@@2UQMetaObject@@B (public: static struct QMetaObject const QtDateTimePropertyManager::staticMetaObject)
                  ?staticMetaObject@QtDoublePropertyManager@@2UQMetaObject@@B (public: static struct QMetaObject const QtDoublePropertyManager::staticMetaObject)
                  ?staticMetaObject@QtDoubleSpinBoxFactory@@2UQMetaObject@@B (public: static struct QMetaObject const QtDoubleSpinBoxFactory::staticMetaObject)
                  ?staticMetaObject@QtEnumEditorFactory@@2UQMetaObject@@B (public: static struct QMetaObject const QtEnumEditorFactory::staticMetaObject)
                  ?staticMetaObject@QtEnumPropertyManager@@2UQMetaObject@@B (public: static struct QMetaObject const QtEnumPropertyManager::staticMetaObject)
                  ?staticMetaObject@QtFlagPropertyManager@@2UQMetaObject@@B (public: static struct QMetaObject const QtFlagPropertyManager::staticMetaObject)
                  ?staticMetaObject@QtFontEditorFactory@@2UQMetaObject@@B (public: static struct QMetaObject const QtFontEditorFactory::staticMetaObject)
                  ?staticMetaObject@QtFontPropertyManager@@2UQMetaObject@@B (public: static struct QMetaObject const QtFontPropertyManager::staticMetaObject)
                  ?staticMetaObject@QtGroupBoxPropertyBrowser@@2UQMetaObject@@B (public: static struct QMetaObject const QtGroupBoxPropertyBrowser::staticMetaObject)
                  ?staticMetaObject@QtGroupPropertyManager@@2UQMetaObject@@B (public: static struct QMetaObject const QtGroupPropertyManager::staticMetaObject)
                  ?staticMetaObject@QtIntPropertyManager@@2UQMetaObject@@B (public: static struct QMetaObject const QtIntPropertyManager::staticMetaObject)
                  ?staticMetaObject@QtKeySequenceEditorFactory@@2UQMetaObject@@B (public: static struct QMetaObject const QtKeySequenceEditorFactory::staticMetaObject)
                  ?staticMetaObject@QtKeySequencePropertyManager@@2UQMetaObject@@B (public: static struct QMetaObject const QtKeySequencePropertyManager::staticMetaObject)
                  ?staticMetaObject@QtLineEditFactory@@2UQMetaObject@@B (public: static struct QMetaObject const QtLineEditFactory::staticMetaObject)
                  ?staticMetaObject@QtLocalePropertyManager@@2UQMetaObject@@B (public: static struct QMetaObject const QtLocalePropertyManager::staticMetaObject)
                  ?staticMetaObject@QtPointFPropertyManager@@2UQMetaObject@@B (public: static struct QMetaObject const QtPointFPropertyManager::staticMetaObject)
                  ?staticMetaObject@QtPointPropertyManager@@2UQMetaObject@@B (public: static struct QMetaObject const QtPointPropertyManager::staticMetaObject)
                  ?staticMetaObject@QtRectFPropertyManager@@2UQMetaObject@@B (public: static struct QMetaObject const QtRectFPropertyManager::staticMetaObject)
                  ?staticMetaObject@QtRectPropertyManager@@2UQMetaObject@@B (public: static struct QMetaObject const QtRectPropertyManager::staticMetaObject)
                  ?staticMetaObject@QtScrollBarFactory@@2UQMetaObject@@B (public: static struct QMetaObject const QtScrollBarFactory::staticMetaObject)
                  ?staticMetaObject@QtSizeFPropertyManager@@2UQMetaObject@@B (public: static struct QMetaObject const QtSizeFPropertyManager::staticMetaObject)
                  ?staticMetaObject@QtSizePolicyPropertyManager@@2UQMetaObject@@B (public: static struct QMetaObject const QtSizePolicyPropertyManager::staticMetaObject)
                  ?staticMetaObject@QtSizePropertyManager@@2UQMetaObject@@B (public: static struct QMetaObject const QtSizePropertyManager::staticMetaObject)
                  ?staticMetaObject@QtSliderFactory@@2UQMetaObject@@B (public: static struct QMetaObject const QtSliderFactory::staticMetaObject)
                  ?staticMetaObject@QtSpinBoxFactory@@2UQMetaObject@@B (public: static struct QMetaObject const QtSpinBoxFactory::staticMetaObject)
                  ?staticMetaObject@QtStringPropertyManager@@2UQMetaObject@@B (public: static struct QMetaObject const QtStringPropertyManager::staticMetaObject)
                  ?staticMetaObject@QtTimeEditFactory@@2UQMetaObject@@B (public: static struct QMetaObject const QtTimeEditFactory::staticMetaObject)
                  ?staticMetaObject@QtTimePropertyManager@@2UQMetaObject@@B (public: static struct QMetaObject const QtTimePropertyManager::staticMetaObject)
                  
moc_ unresolved external symbol staticMetaObject
                  
(public: static struct QMetaObject const QtTreePropertyBrowser::staticMetaObject" (?staticMetaObject@QtTreePropertyBrowser@@2UQMetaObject@@B)
(public: static struct QMetaObject const QtTreePropertyBrowser::staticMetaObject) (?staticMetaObject@QtTreePropertyBrowser@@2UQMetaObject@@B 
                  
                  ?staticMetaObject@QtVariantEditorFactory@@2UQMetaObject@@B (public: static struct QMetaObject const QtVariantEditorFactory::staticMetaObject)
                  ?staticMetaObject@QtVariantPropertyManager@@2UQMetaObject@@B (public: static struct QMetaObject const QtVariantPropertyManager::staticMetaObject)
                  ?statusTip@QtProperty@@QBE?AVQString@@XZ (public: class QString __thiscall QtProperty::statusTip(void)const )
                  ?subBoolPropertyManager@QtFlagPropertyManager@@QBEPAVQtBoolPropertyManager@@XZ (public: class QtBoolPropertyManager * __thiscall QtFlagPropertyManager::subBoolPropertyManager(void)const )
                  ?subBoolPropertyManager@QtFontPropertyManager@@QBEPAVQtBoolPropertyManager@@XZ (public: class QtBoolPropertyManager * __thiscall QtFontPropertyManager::subBoolPropertyManager(void)const )
                  ?subDoublePropertyManager@QtPointFPropertyManager@@QBEPAVQtDoublePropertyManager@@XZ (public: class QtDoublePropertyManager * __thiscall QtPointFPropertyManager::subDoublePropertyManager(void)const )
                  ?subDoublePropertyManager@QtRectFPropertyManager@@QBEPAVQtDoublePropertyManager@@XZ (public: class QtDoublePropertyManager * __thiscall QtRectFPropertyManager::subDoublePropertyManager(void)const )
                  ?subDoublePropertyManager@QtSizeFPropertyManager@@QBEPAVQtDoublePropertyManager@@XZ (public: class QtDoublePropertyManager * __thiscall QtSizeFPropertyManager::subDoublePropertyManager(void)const )
                  ?subEnumPropertyManager@QtFontPropertyManager@@QBEPAVQtEnumPropertyManager@@XZ (public: class QtEnumPropertyManager * __thiscall QtFontPropertyManager::subEnumPropertyManager(void)const )
                  ?subEnumPropertyManager@QtLocalePropertyManager@@QBEPAVQtEnumPropertyManager@@XZ (public: class QtEnumPropertyManager * __thiscall QtLocalePropertyManager::subEnumPropertyManager(void)const )
                  ?subEnumPropertyManager@QtSizePolicyPropertyManager@@QBEPAVQtEnumPropertyManager@@XZ (public: class QtEnumPropertyManager * __thiscall QtSizePolicyPropertyManager::subEnumPropertyManager(void)const )
                  ?subIntPropertyManager@QtColorPropertyManager@@QBEPAVQtIntPropertyManager@@XZ (public: class QtIntPropertyManager * __thiscall QtColorPropertyManager::subIntPropertyManager(void)const )
                  ?subIntPropertyManager@QtFontPropertyManager@@QBEPAVQtIntPropertyManager@@XZ (public: class QtIntPropertyManager * __thiscall QtFontPropertyManager::subIntPropertyManager(void)const )
                  ?subIntPropertyManager@QtPointPropertyManager@@QBEPAVQtIntPropertyManager@@XZ (public: class QtIntPropertyManager * __thiscall QtPointPropertyManager::subIntPropertyManager(void)const )
                  ?subIntPropertyManager@QtRectPropertyManager@@QBEPAVQtIntPropertyManager@@XZ (public: class QtIntPropertyManager * __thiscall QtRectPropertyManager::subIntPropertyManager(void)const )
                  ?subIntPropertyManager@QtSizePolicyPropertyManager@@QBEPAVQtIntPropertyManager@@XZ (public: class QtIntPropertyManager * __thiscall QtSizePolicyPropertyManager::subIntPropertyManager(void)const )
                  ?subIntPropertyManager@QtSizePropertyManager@@QBEPAVQtIntPropertyManager@@XZ (public: class QtIntPropertyManager * __thiscall QtSizePropertyManager::subIntPropertyManager(void)const )
                  ?subProperties@QtProperty@@QBE?AV?$QList@PAVQtProperty@@@@XZ (public: class QList<class QtProperty *> __thiscall QtProperty::subProperties(void)const )
                  ?toolTip@QtProperty@@QBE?AVQString@@XZ (public: class QString __thiscall QtProperty::toolTip(void)const )
                  ?topLevelItem@QtAbstractPropertyBrowser@@QBEPAVQtBrowserItem@@PAVQtProperty@@@Z (public: class QtBrowserItem * __thiscall QtAbstractPropertyBrowser::topLevelItem(class QtProperty *)const )
                  ?topLevelItems@QtAbstractPropertyBrowser@@QBE?AV?$QList@PAVQtBrowserItem@@@@XZ (public: class QList<class QtBrowserItem *> __thiscall QtAbstractPropertyBrowser::topLevelItems(void)const )
                  ?tr@QtAbstractEditorFactoryBase@@SA?AVQString@@PBD0@Z (public: static class QString __cdecl QtAbstractEditorFactoryBase::tr(char const *,char const *))
                  ?tr@QtAbstractEditorFactoryBase@@SA?AVQString@@PBD0H@Z (public: static class QString __cdecl QtAbstractEditorFactoryBase::tr(char const *,char const *,int))
                  ?tr@QtAbstractPropertyBrowser@@SA?AVQString@@PBD0@Z (public: static class QString __cdecl QtAbstractPropertyBrowser::tr(char const *,char const *))
                  ?tr@QtAbstractPropertyBrowser@@SA?AVQString@@PBD0H@Z (public: static class QString __cdecl QtAbstractPropertyBrowser::tr(char const *,char const *,int))
                  ?tr@QtAbstractPropertyManager@@SA?AVQString@@PBD0@Z (public: static class QString __cdecl QtAbstractPropertyManager::tr(char const *,char const *))
                  ?tr@QtAbstractPropertyManager@@SA?AVQString@@PBD0H@Z (public: static class QString __cdecl QtAbstractPropertyManager::tr(char const *,char const *,int))
                  ?tr@QtBoolPropertyManager@@SA?AVQString@@PBD0@Z (public: static class QString __cdecl QtBoolPropertyManager::tr(char const *,char const *))
                  ?tr@QtBoolPropertyManager@@SA?AVQString@@PBD0H@Z (public: static class QString __cdecl QtBoolPropertyManager::tr(char const *,char const *,int))
                  ?tr@QtButtonPropertyBrowser@@SA?AVQString@@PBD0@Z (public: static class QString __cdecl QtButtonPropertyBrowser::tr(char const *,char const *))
                  ?tr@QtButtonPropertyBrowser@@SA?AVQString@@PBD0H@Z (public: static class QString __cdecl QtButtonPropertyBrowser::tr(char const *,char const *,int))
                  ?tr@QtCharEditorFactory@@SA?AVQString@@PBD0@Z (public: static class QString __cdecl QtCharEditorFactory::tr(char const *,char const *))
                  ?tr@QtCharEditorFactory@@SA?AVQString@@PBD0H@Z (public: static class QString __cdecl QtCharEditorFactory::tr(char const *,char const *,int))
                  ?tr@QtCharPropertyManager@@SA?AVQString@@PBD0@Z (public: static class QString __cdecl QtCharPropertyManager::tr(char const *,char const *))
                  ?tr@QtCharPropertyManager@@SA?AVQString@@PBD0H@Z (public: static class QString __cdecl QtCharPropertyManager::tr(char const *,char const *,int))
                  ?tr@QtCheckBoxFactory@@SA?AVQString@@PBD0@Z (public: static class QString __cdecl QtCheckBoxFactory::tr(char const *,char const *))
                  ?tr@QtCheckBoxFactory@@SA?AVQString@@PBD0H@Z (public: static class QString __cdecl QtCheckBoxFactory::tr(char const *,char const *,int))
                  ?tr@QtColorEditorFactory@@SA?AVQString@@PBD0@Z (public: static class QString __cdecl QtColorEditorFactory::tr(char const *,char const *))
                  ?tr@QtColorEditorFactory@@SA?AVQString@@PBD0H@Z (public: static class QString __cdecl QtColorEditorFactory::tr(char const *,char const *,int))
                  ?tr@QtColorPropertyManager@@SA?AVQString@@PBD0@Z (public: static class QString __cdecl QtColorPropertyManager::tr(char const *,char const *))
                  ?tr@QtColorPropertyManager@@SA?AVQString@@PBD0H@Z (public: static class QString __cdecl QtColorPropertyManager::tr(char const *,char const *,int))
                  ?tr@QtCursorEditorFactory@@SA?AVQString@@PBD0@Z (public: static class QString __cdecl QtCursorEditorFactory::tr(char const *,char const *))
                  ?tr@QtCursorEditorFactory@@SA?AVQString@@PBD0H@Z (public: static class QString __cdecl QtCursorEditorFactory::tr(char const *,char const *,int))
                  ?tr@QtCursorPropertyManager@@SA?AVQString@@PBD0@Z (public: static class QString __cdecl QtCursorPropertyManager::tr(char const *,char const *))
                  ?tr@QtCursorPropertyManager@@SA?AVQString@@PBD0H@Z (public: static class QString __cdecl QtCursorPropertyManager::tr(char const *,char const *,int))
                  ?tr@QtDateEditFactory@@SA?AVQString@@PBD0@Z (public: static class QString __cdecl QtDateEditFactory::tr(char const *,char const *))
                  ?tr@QtDateEditFactory@@SA?AVQString@@PBD0H@Z (public: static class QString __cdecl QtDateEditFactory::tr(char const *,char const *,int))
                  ?tr@QtDatePropertyManager@@SA?AVQString@@PBD0@Z (public: static class QString __cdecl QtDatePropertyManager::tr(char const *,char const *))
                  ?tr@QtDatePropertyManager@@SA?AVQString@@PBD0H@Z (public: static class QString __cdecl QtDatePropertyManager::tr(char const *,char const *,int))
                  ?tr@QtDateTimeEditFactory@@SA?AVQString@@PBD0@Z (public: static class QString __cdecl QtDateTimeEditFactory::tr(char const *,char const *))
                  ?tr@QtDateTimeEditFactory@@SA?AVQString@@PBD0H@Z (public: static class QString __cdecl QtDateTimeEditFactory::tr(char const *,char const *,int))
                  ?tr@QtDateTimePropertyManager@@SA?AVQString@@PBD0@Z (public: static class QString __cdecl QtDateTimePropertyManager::tr(char const *,char const *))
                  ?tr@QtDateTimePropertyManager@@SA?AVQString@@PBD0H@Z (public: static class QString __cdecl QtDateTimePropertyManager::tr(char const *,char const *,int))
                  ?tr@QtDoublePropertyManager@@SA?AVQString@@PBD0@Z (public: static class QString __cdecl QtDoublePropertyManager::tr(char const *,char const *))
                  ?tr@QtDoublePropertyManager@@SA?AVQString@@PBD0H@Z (public: static class QString __cdecl QtDoublePropertyManager::tr(char const *,char const *,int))
                  ?tr@QtDoubleSpinBoxFactory@@SA?AVQString@@PBD0@Z (public: static class QString __cdecl QtDoubleSpinBoxFactory::tr(char const *,char const *))
                  ?tr@QtDoubleSpinBoxFactory@@SA?AVQString@@PBD0H@Z (public: static class QString __cdecl QtDoubleSpinBoxFactory::tr(char const *,char const *,int))
                  ?tr@QtEnumEditorFactory@@SA?AVQString@@PBD0@Z (public: static class QString __cdecl QtEnumEditorFactory::tr(char const *,char const *))
                  ?tr@QtEnumEditorFactory@@SA?AVQString@@PBD0H@Z (public: static class QString __cdecl QtEnumEditorFactory::tr(char const *,char const *,int))
                  ?tr@QtEnumPropertyManager@@SA?AVQString@@PBD0@Z (public: static class QString __cdecl QtEnumPropertyManager::tr(char const *,char const *))
                  ?tr@QtEnumPropertyManager@@SA?AVQString@@PBD0H@Z (public: static class QString __cdecl QtEnumPropertyManager::tr(char const *,char const *,int))
                  ?tr@QtFlagPropertyManager@@SA?AVQString@@PBD0@Z (public: static class QString __cdecl QtFlagPropertyManager::tr(char const *,char const *))
                  ?tr@QtFlagPropertyManager@@SA?AVQString@@PBD0H@Z (public: static class QString __cdecl QtFlagPropertyManager::tr(char const *,char const *,int))
                  ?tr@QtFontEditorFactory@@SA?AVQString@@PBD0@Z (public: static class QString __cdecl QtFontEditorFactory::tr(char const *,char const *))
                  ?tr@QtFontEditorFactory@@SA?AVQString@@PBD0H@Z (public: static class QString __cdecl QtFontEditorFactory::tr(char const *,char const *,int))
                  ?tr@QtFontPropertyManager@@SA?AVQString@@PBD0@Z (public: static class QString __cdecl QtFontPropertyManager::tr(char const *,char const *))
                  ?tr@QtFontPropertyManager@@SA?AVQString@@PBD0H@Z (public: static class QString __cdecl QtFontPropertyManager::tr(char const *,char const *,int))
                  ?tr@QtGroupBoxPropertyBrowser@@SA?AVQString@@PBD0@Z (public: static class QString __cdecl QtGroupBoxPropertyBrowser::tr(char const *,char const *))
                  ?tr@QtGroupBoxPropertyBrowser@@SA?AVQString@@PBD0H@Z (public: static class QString __cdecl QtGroupBoxPropertyBrowser::tr(char const *,char const *,int))
                  ?tr@QtGroupPropertyManager@@SA?AVQString@@PBD0@Z (public: static class QString __cdecl QtGroupPropertyManager::tr(char const *,char const *))
                  ?tr@QtGroupPropertyManager@@SA?AVQString@@PBD0H@Z (public: static class QString __cdecl QtGroupPropertyManager::tr(char const *,char const *,int))
                  ?tr@QtIntPropertyManager@@SA?AVQString@@PBD0@Z (public: static class QString __cdecl QtIntPropertyManager::tr(char const *,char const *))
                  ?tr@QtIntPropertyManager@@SA?AVQString@@PBD0H@Z (public: static class QString __cdecl QtIntPropertyManager::tr(char const *,char const *,int))
                  ?tr@QtKeySequenceEditorFactory@@SA?AVQString@@PBD0@Z (public: static class QString __cdecl QtKeySequenceEditorFactory::tr(char const *,char const *))
                  ?tr@QtKeySequenceEditorFactory@@SA?AVQString@@PBD0H@Z (public: static class QString __cdecl QtKeySequenceEditorFactory::tr(char const *,char const *,int))
                  ?tr@QtKeySequencePropertyManager@@SA?AVQString@@PBD0@Z (public: static class QString __cdecl QtKeySequencePropertyManager::tr(char const *,char const *))
                  ?tr@QtKeySequencePropertyManager@@SA?AVQString@@PBD0H@Z (public: static class QString __cdecl QtKeySequencePropertyManager::tr(char const *,char const *,int))
                  ?tr@QtLineEditFactory@@SA?AVQString@@PBD0@Z (public: static class QString __cdecl QtLineEditFactory::tr(char const *,char const *))
                  ?tr@QtLineEditFactory@@SA?AVQString@@PBD0H@Z (public: static class QString __cdecl QtLineEditFactory::tr(char const *,char const *,int))
                  ?tr@QtLocalePropertyManager@@SA?AVQString@@PBD0@Z (public: static class QString __cdecl QtLocalePropertyManager::tr(char const *,char const *))
                  ?tr@QtLocalePropertyManager@@SA?AVQString@@PBD0H@Z (public: static class QString __cdecl QtLocalePropertyManager::tr(char const *,char const *,int))
                  ?tr@QtPointFPropertyManager@@SA?AVQString@@PBD0@Z (public: static class QString __cdecl QtPointFPropertyManager::tr(char const *,char const *))
                  ?tr@QtPointFPropertyManager@@SA?AVQString@@PBD0H@Z (public: static class QString __cdecl QtPointFPropertyManager::tr(char const *,char const *,int))
                  ?tr@QtPointPropertyManager@@SA?AVQString@@PBD0@Z (public: static class QString __cdecl QtPointPropertyManager::tr(char const *,char const *))
                  ?tr@QtPointPropertyManager@@SA?AVQString@@PBD0H@Z (public: static class QString __cdecl QtPointPropertyManager::tr(char const *,char const *,int))
                  ?tr@QtRectFPropertyManager@@SA?AVQString@@PBD0@Z (public: static class QString __cdecl QtRectFPropertyManager::tr(char const *,char const *))
                  ?tr@QtRectFPropertyManager@@SA?AVQString@@PBD0H@Z (public: static class QString __cdecl QtRectFPropertyManager::tr(char const *,char const *,int))
                  ?tr@QtRectPropertyManager@@SA?AVQString@@PBD0@Z (public: static class QString __cdecl QtRectPropertyManager::tr(char const *,char const *))
                  ?tr@QtRectPropertyManager@@SA?AVQString@@PBD0H@Z (public: static class QString __cdecl QtRectPropertyManager::tr(char const *,char const *,int))
                  ?tr@QtScrollBarFactory@@SA?AVQString@@PBD0@Z (public: static class QString __cdecl QtScrollBarFactory::tr(char const *,char const *))
                  ?tr@QtScrollBarFactory@@SA?AVQString@@PBD0H@Z (public: static class QString __cdecl QtScrollBarFactory::tr(char const *,char const *,int))
                  ?tr@QtSizeFPropertyManager@@SA?AVQString@@PBD0@Z (public: static class QString __cdecl QtSizeFPropertyManager::tr(char const *,char const *))
                  ?tr@QtSizeFPropertyManager@@SA?AVQString@@PBD0H@Z (public: static class QString __cdecl QtSizeFPropertyManager::tr(char const *,char const *,int))
                  ?tr@QtSizePolicyPropertyManager@@SA?AVQString@@PBD0@Z (public: static class QString __cdecl QtSizePolicyPropertyManager::tr(char const *,char const *))
                  ?tr@QtSizePolicyPropertyManager@@SA?AVQString@@PBD0H@Z (public: static class QString __cdecl QtSizePolicyPropertyManager::tr(char const *,char const *,int))
                  ?tr@QtSizePropertyManager@@SA?AVQString@@PBD0@Z (public: static class QString __cdecl QtSizePropertyManager::tr(char const *,char const *))
                  ?tr@QtSizePropertyManager@@SA?AVQString@@PBD0H@Z (public: static class QString __cdecl QtSizePropertyManager::tr(char const *,char const *,int))
                  ?tr@QtSliderFactory@@SA?AVQString@@PBD0@Z (public: static class QString __cdecl QtSliderFactory::tr(char const *,char const *))
                  ?tr@QtSliderFactory@@SA?AVQString@@PBD0H@Z (public: static class QString __cdecl QtSliderFactory::tr(char const *,char const *,int))
                  ?tr@QtSpinBoxFactory@@SA?AVQString@@PBD0@Z (public: static class QString __cdecl QtSpinBoxFactory::tr(char const *,char const *))
                  ?tr@QtSpinBoxFactory@@SA?AVQString@@PBD0H@Z (public: static class QString __cdecl QtSpinBoxFactory::tr(char const *,char const *,int))
                  ?tr@QtStringPropertyManager@@SA?AVQString@@PBD0@Z (public: static class QString __cdecl QtStringPropertyManager::tr(char const *,char const *))
                  ?tr@QtStringPropertyManager@@SA?AVQString@@PBD0H@Z (public: static class QString __cdecl QtStringPropertyManager::tr(char const *,char const *,int))
                  ?tr@QtTimeEditFactory@@SA?AVQString@@PBD0@Z (public: static class QString __cdecl QtTimeEditFactory::tr(char const *,char const *))
                  ?tr@QtTimeEditFactory@@SA?AVQString@@PBD0H@Z (public: static class QString __cdecl QtTimeEditFactory::tr(char const *,char const *,int))
                  ?tr@QtTimePropertyManager@@SA?AVQString@@PBD0@Z (public: static class QString __cdecl QtTimePropertyManager::tr(char const *,char const *))
                  ?tr@QtTimePropertyManager@@SA?AVQString@@PBD0H@Z (public: static class QString __cdecl QtTimePropertyManager::tr(char const *,char const *,int))
                  ?tr@QtTreePropertyBrowser@@SA?AVQString@@PBD0@Z (public: static class QString __cdecl QtTreePropertyBrowser::tr(char const *,char const *))
                  ?tr@QtTreePropertyBrowser@@SA?AVQString@@PBD0H@Z (public: static class QString __cdecl QtTreePropertyBrowser::tr(char const *,char const *,int))
                  ?tr@QtVariantEditorFactory@@SA?AVQString@@PBD0@Z (public: static class QString __cdecl QtVariantEditorFactory::tr(char const *,char const *))
                  ?tr@QtVariantEditorFactory@@SA?AVQString@@PBD0H@Z (public: static class QString __cdecl QtVariantEditorFactory::tr(char const *,char const *,int))
                  ?tr@QtVariantPropertyManager@@SA?AVQString@@PBD0@Z (public: static class QString __cdecl QtVariantPropertyManager::tr(char const *,char const *))
                  ?tr@QtVariantPropertyManager@@SA?AVQString@@PBD0H@Z (public: static class QString __cdecl QtVariantPropertyManager::tr(char const *,char const *,int))
                  ?trUtf8@QtAbstractEditorFactoryBase@@SA?AVQString@@PBD0@Z (public: static class QString __cdecl QtAbstractEditorFactoryBase::trUtf8(char const *,char const *))
                  ?trUtf8@QtAbstractEditorFactoryBase@@SA?AVQString@@PBD0H@Z (public: static class QString __cdecl QtAbstractEditorFactoryBase::trUtf8(char const *,char const *,int))
                  ?trUtf8@QtAbstractPropertyBrowser@@SA?AVQString@@PBD0@Z (public: static class QString __cdecl QtAbstractPropertyBrowser::trUtf8(char const *,char const *))
                  ?trUtf8@QtAbstractPropertyBrowser@@SA?AVQString@@PBD0H@Z (public: static class QString __cdecl QtAbstractPropertyBrowser::trUtf8(char const *,char const *,int))
                  ?trUtf8@QtAbstractPropertyManager@@SA?AVQString@@PBD0@Z (public: static class QString __cdecl QtAbstractPropertyManager::trUtf8(char const *,char const *))
                  ?trUtf8@QtAbstractPropertyManager@@SA?AVQString@@PBD0H@Z (public: static class QString __cdecl QtAbstractPropertyManager::trUtf8(char const *,char const *,int))
                  ?trUtf8@QtBoolPropertyManager@@SA?AVQString@@PBD0@Z (public: static class QString __cdecl QtBoolPropertyManager::trUtf8(char const *,char const *))
                  ?trUtf8@QtBoolPropertyManager@@SA?AVQString@@PBD0H@Z (public: static class QString __cdecl QtBoolPropertyManager::trUtf8(char const *,char const *,int))
                  ?trUtf8@QtButtonPropertyBrowser@@SA?AVQString@@PBD0@Z (public: static class QString __cdecl QtButtonPropertyBrowser::trUtf8(char const *,char const *))
                  ?trUtf8@QtButtonPropertyBrowser@@SA?AVQString@@PBD0H@Z (public: static class QString __cdecl QtButtonPropertyBrowser::trUtf8(char const *,char const *,int))
                  ?trUtf8@QtCharEditorFactory@@SA?AVQString@@PBD0@Z (public: static class QString __cdecl QtCharEditorFactory::trUtf8(char const *,char const *))
                  ?trUtf8@QtCharEditorFactory@@SA?AVQString@@PBD0H@Z (public: static class QString __cdecl QtCharEditorFactory::trUtf8(char const *,char const *,int))
                  ?trUtf8@QtCharPropertyManager@@SA?AVQString@@PBD0@Z (public: static class QString __cdecl QtCharPropertyManager::trUtf8(char const *,char const *))
                  ?trUtf8@QtCharPropertyManager@@SA?AVQString@@PBD0H@Z (public: static class QString __cdecl QtCharPropertyManager::trUtf8(char const *,char const *,int))
                  ?trUtf8@QtCheckBoxFactory@@SA?AVQString@@PBD0@Z (public: static class QString __cdecl QtCheckBoxFactory::trUtf8(char const *,char const *))
                  ?trUtf8@QtCheckBoxFactory@@SA?AVQString@@PBD0H@Z (public: static class QString __cdecl QtCheckBoxFactory::trUtf8(char const *,char const *,int))
                  ?trUtf8@QtColorEditorFactory@@SA?AVQString@@PBD0@Z (public: static class QString __cdecl QtColorEditorFactory::trUtf8(char const *,char const *))
                  ?trUtf8@QtColorEditorFactory@@SA?AVQString@@PBD0H@Z (public: static class QString __cdecl QtColorEditorFactory::trUtf8(char const *,char const *,int))
                  ?trUtf8@QtColorPropertyManager@@SA?AVQString@@PBD0@Z (public: static class QString __cdecl QtColorPropertyManager::trUtf8(char const *,char const *))
                  ?trUtf8@QtColorPropertyManager@@SA?AVQString@@PBD0H@Z (public: static class QString __cdecl QtColorPropertyManager::trUtf8(char const *,char const *,int))
                  ?trUtf8@QtCursorEditorFactory@@SA?AVQString@@PBD0@Z (public: static class QString __cdecl QtCursorEditorFactory::trUtf8(char const *,char const *))
                  ?trUtf8@QtCursorEditorFactory@@SA?AVQString@@PBD0H@Z (public: static class QString __cdecl QtCursorEditorFactory::trUtf8(char const *,char const *,int))
                  ?trUtf8@QtCursorPropertyManager@@SA?AVQString@@PBD0@Z (public: static class QString __cdecl QtCursorPropertyManager::trUtf8(char const *,char const *))
                  ?trUtf8@QtCursorPropertyManager@@SA?AVQString@@PBD0H@Z (public: static class QString __cdecl QtCursorPropertyManager::trUtf8(char const *,char const *,int))
                  ?trUtf8@QtDateEditFactory@@SA?AVQString@@PBD0@Z (public: static class QString __cdecl QtDateEditFactory::trUtf8(char const *,char const *))
                  ?trUtf8@QtDateEditFactory@@SA?AVQString@@PBD0H@Z (public: static class QString __cdecl QtDateEditFactory::trUtf8(char const *,char const *,int))
                  ?trUtf8@QtDatePropertyManager@@SA?AVQString@@PBD0@Z (public: static class QString __cdecl QtDatePropertyManager::trUtf8(char const *,char const *))
                  ?trUtf8@QtDatePropertyManager@@SA?AVQString@@PBD0H@Z (public: static class QString __cdecl QtDatePropertyManager::trUtf8(char const *,char const *,int))
                  ?trUtf8@QtDateTimeEditFactory@@SA?AVQString@@PBD0@Z (public: static class QString __cdecl QtDateTimeEditFactory::trUtf8(char const *,char const *))
                  ?trUtf8@QtDateTimeEditFactory@@SA?AVQString@@PBD0H@Z (public: static class QString __cdecl QtDateTimeEditFactory::trUtf8(char const *,char const *,int))
                  ?trUtf8@QtDateTimePropertyManager@@SA?AVQString@@PBD0@Z (public: static class QString __cdecl QtDateTimePropertyManager::trUtf8(char const *,char const *))
                  ?trUtf8@QtDateTimePropertyManager@@SA?AVQString@@PBD0H@Z (public: static class QString __cdecl QtDateTimePropertyManager::trUtf8(char const *,char const *,int))
                  ?trUtf8@QtDoublePropertyManager@@SA?AVQString@@PBD0@Z (public: static class QString __cdecl QtDoublePropertyManager::trUtf8(char const *,char const *))
                  ?trUtf8@QtDoublePropertyManager@@SA?AVQString@@PBD0H@Z (public: static class QString __cdecl QtDoublePropertyManager::trUtf8(char const *,char const *,int))
                  ?trUtf8@QtDoubleSpinBoxFactory@@SA?AVQString@@PBD0@Z (public: static class QString __cdecl QtDoubleSpinBoxFactory::trUtf8(char const *,char const *))
                  ?trUtf8@QtDoubleSpinBoxFactory@@SA?AVQString@@PBD0H@Z (public: static class QString __cdecl QtDoubleSpinBoxFactory::trUtf8(char const *,char const *,int))
                  ?trUtf8@QtEnumEditorFactory@@SA?AVQString@@PBD0@Z (public: static class QString __cdecl QtEnumEditorFactory::trUtf8(char const *,char const *))
                  ?trUtf8@QtEnumEditorFactory@@SA?AVQString@@PBD0H@Z (public: static class QString __cdecl QtEnumEditorFactory::trUtf8(char const *,char const *,int))
                  ?trUtf8@QtEnumPropertyManager@@SA?AVQString@@PBD0@Z (public: static class QString __cdecl QtEnumPropertyManager::trUtf8(char const *,char const *))
                  ?trUtf8@QtEnumPropertyManager@@SA?AVQString@@PBD0H@Z (public: static class QString __cdecl QtEnumPropertyManager::trUtf8(char const *,char const *,int))
                  ?trUtf8@QtFlagPropertyManager@@SA?AVQString@@PBD0@Z (public: static class QString __cdecl QtFlagPropertyManager::trUtf8(char const *,char const *))
                  ?trUtf8@QtFlagPropertyManager@@SA?AVQString@@PBD0H@Z (public: static class QString __cdecl QtFlagPropertyManager::trUtf8(char const *,char const *,int))
                  ?trUtf8@QtFontEditorFactory@@SA?AVQString@@PBD0@Z (public: static class QString __cdecl QtFontEditorFactory::trUtf8(char const *,char const *))
                  ?trUtf8@QtFontEditorFactory@@SA?AVQString@@PBD0H@Z (public: static class QString __cdecl QtFontEditorFactory::trUtf8(char const *,char const *,int))
                  ?trUtf8@QtFontPropertyManager@@SA?AVQString@@PBD0@Z (public: static class QString __cdecl QtFontPropertyManager::trUtf8(char const *,char const *))
                  ?trUtf8@QtFontPropertyManager@@SA?AVQString@@PBD0H@Z (public: static class QString __cdecl QtFontPropertyManager::trUtf8(char const *,char const *,int))
                  ?trUtf8@QtGroupBoxPropertyBrowser@@SA?AVQString@@PBD0@Z (public: static class QString __cdecl QtGroupBoxPropertyBrowser::trUtf8(char const *,char const *))
                  ?trUtf8@QtGroupBoxPropertyBrowser@@SA?AVQString@@PBD0H@Z (public: static class QString __cdecl QtGroupBoxPropertyBrowser::trUtf8(char const *,char const *,int))
                  ?trUtf8@QtGroupPropertyManager@@SA?AVQString@@PBD0@Z (public: static class QString __cdecl QtGroupPropertyManager::trUtf8(char const *,char const *))
                  ?trUtf8@QtGroupPropertyManager@@SA?AVQString@@PBD0H@Z (public: static class QString __cdecl QtGroupPropertyManager::trUtf8(char const *,char const *,int))
                  ?trUtf8@QtIntPropertyManager@@SA?AVQString@@PBD0@Z (public: static class QString __cdecl QtIntPropertyManager::trUtf8(char const *,char const *))
                  ?trUtf8@QtIntPropertyManager@@SA?AVQString@@PBD0H@Z (public: static class QString __cdecl QtIntPropertyManager::trUtf8(char const *,char const *,int))
                  ?trUtf8@QtKeySequenceEditorFactory@@SA?AVQString@@PBD0@Z (public: static class QString __cdecl QtKeySequenceEditorFactory::trUtf8(char const *,char const *))
                  ?trUtf8@QtKeySequenceEditorFactory@@SA?AVQString@@PBD0H@Z (public: static class QString __cdecl QtKeySequenceEditorFactory::trUtf8(char const *,char const *,int))
                  ?trUtf8@QtKeySequencePropertyManager@@SA?AVQString@@PBD0@Z (public: static class QString __cdecl QtKeySequencePropertyManager::trUtf8(char const *,char const *))
                  ?trUtf8@QtKeySequencePropertyManager@@SA?AVQString@@PBD0H@Z (public: static class QString __cdecl QtKeySequencePropertyManager::trUtf8(char const *,char const *,int))
                  ?trUtf8@QtLineEditFactory@@SA?AVQString@@PBD0@Z (public: static class QString __cdecl QtLineEditFactory::trUtf8(char const *,char const *))
                  ?trUtf8@QtLineEditFactory@@SA?AVQString@@PBD0H@Z (public: static class QString __cdecl QtLineEditFactory::trUtf8(char const *,char const *,int))
                  ?trUtf8@QtLocalePropertyManager@@SA?AVQString@@PBD0@Z (public: static class QString __cdecl QtLocalePropertyManager::trUtf8(char const *,char const *))
                  ?trUtf8@QtLocalePropertyManager@@SA?AVQString@@PBD0H@Z (public: static class QString __cdecl QtLocalePropertyManager::trUtf8(char const *,char const *,int))
                  ?trUtf8@QtPointFPropertyManager@@SA?AVQString@@PBD0@Z (public: static class QString __cdecl QtPointFPropertyManager::trUtf8(char const *,char const *))
                  ?trUtf8@QtPointFPropertyManager@@SA?AVQString@@PBD0H@Z (public: static class QString __cdecl QtPointFPropertyManager::trUtf8(char const *,char const *,int))
                  ?trUtf8@QtPointPropertyManager@@SA?AVQString@@PBD0@Z (public: static class QString __cdecl QtPointPropertyManager::trUtf8(char const *,char const *))
                  ?trUtf8@QtPointPropertyManager@@SA?AVQString@@PBD0H@Z (public: static class QString __cdecl QtPointPropertyManager::trUtf8(char const *,char const *,int))
                  ?trUtf8@QtRectFPropertyManager@@SA?AVQString@@PBD0@Z (public: static class QString __cdecl QtRectFPropertyManager::trUtf8(char const *,char const *))
                  ?trUtf8@QtRectFPropertyManager@@SA?AVQString@@PBD0H@Z (public: static class QString __cdecl QtRectFPropertyManager::trUtf8(char const *,char const *,int))
                  ?trUtf8@QtRectPropertyManager@@SA?AVQString@@PBD0@Z (public: static class QString __cdecl QtRectPropertyManager::trUtf8(char const *,char const *))
                  ?trUtf8@QtRectPropertyManager@@SA?AVQString@@PBD0H@Z (public: static class QString __cdecl QtRectPropertyManager::trUtf8(char const *,char const *,int))
                  ?trUtf8@QtScrollBarFactory@@SA?AVQString@@PBD0@Z (public: static class QString __cdecl QtScrollBarFactory::trUtf8(char const *,char const *))
                  ?trUtf8@QtScrollBarFactory@@SA?AVQString@@PBD0H@Z (public: static class QString __cdecl QtScrollBarFactory::trUtf8(char const *,char const *,int))
                  ?trUtf8@QtSizeFPropertyManager@@SA?AVQString@@PBD0@Z (public: static class QString __cdecl QtSizeFPropertyManager::trUtf8(char const *,char const *))
                  ?trUtf8@QtSizeFPropertyManager@@SA?AVQString@@PBD0H@Z (public: static class QString __cdecl QtSizeFPropertyManager::trUtf8(char const *,char const *,int))
                  ?trUtf8@QtSizePolicyPropertyManager@@SA?AVQString@@PBD0@Z (public: static class QString __cdecl QtSizePolicyPropertyManager::trUtf8(char const *,char const *))
                  ?trUtf8@QtSizePolicyPropertyManager@@SA?AVQString@@PBD0H@Z (public: static class QString __cdecl QtSizePolicyPropertyManager::trUtf8(char const *,char const *,int))
                  ?trUtf8@QtSizePropertyManager@@SA?AVQString@@PBD0@Z (public: static class QString __cdecl QtSizePropertyManager::trUtf8(char const *,char const *))
                  ?trUtf8@QtSizePropertyManager@@SA?AVQString@@PBD0H@Z (public: static class QString __cdecl QtSizePropertyManager::trUtf8(char const *,char const *,int))
                  ?trUtf8@QtSliderFactory@@SA?AVQString@@PBD0@Z (public: static class QString __cdecl QtSliderFactory::trUtf8(char const *,char const *))
                  ?trUtf8@QtSliderFactory@@SA?AVQString@@PBD0H@Z (public: static class QString __cdecl QtSliderFactory::trUtf8(char const *,char const *,int))
                  ?trUtf8@QtSpinBoxFactory@@SA?AVQString@@PBD0@Z (public: static class QString __cdecl QtSpinBoxFactory::trUtf8(char const *,char const *))
                  ?trUtf8@QtSpinBoxFactory@@SA?AVQString@@PBD0H@Z (public: static class QString __cdecl QtSpinBoxFactory::trUtf8(char const *,char const *,int))
                  ?trUtf8@QtStringPropertyManager@@SA?AVQString@@PBD0@Z (public: static class QString __cdecl QtStringPropertyManager::trUtf8(char const *,char const *))
                  ?trUtf8@QtStringPropertyManager@@SA?AVQString@@PBD0H@Z (public: static class QString __cdecl QtStringPropertyManager::trUtf8(char const *,char const *,int))
                  ?trUtf8@QtTimeEditFactory@@SA?AVQString@@PBD0@Z (public: static class QString __cdecl QtTimeEditFactory::trUtf8(char const *,char const *))
                  ?trUtf8@QtTimeEditFactory@@SA?AVQString@@PBD0H@Z (public: static class QString __cdecl QtTimeEditFactory::trUtf8(char const *,char const *,int))
                  ?trUtf8@QtTimePropertyManager@@SA?AVQString@@PBD0@Z (public: static class QString __cdecl QtTimePropertyManager::trUtf8(char const *,char const *))
                  ?trUtf8@QtTimePropertyManager@@SA?AVQString@@PBD0H@Z (public: static class QString __cdecl QtTimePropertyManager::trUtf8(char const *,char const *,int))
                  ?trUtf8@QtTreePropertyBrowser@@SA?AVQString@@PBD0@Z (public: static class QString __cdecl QtTreePropertyBrowser::trUtf8(char const *,char const *))
                  ?trUtf8@QtTreePropertyBrowser@@SA?AVQString@@PBD0H@Z (public: static class QString __cdecl QtTreePropertyBrowser::trUtf8(char const *,char const *,int))
                  ?trUtf8@QtVariantEditorFactory@@SA?AVQString@@PBD0@Z (public: static class QString __cdecl QtVariantEditorFactory::trUtf8(char const *,char const *))
                  ?trUtf8@QtVariantEditorFactory@@SA?AVQString@@PBD0H@Z (public: static class QString __cdecl QtVariantEditorFactory::trUtf8(char const *,char const *,int))
                  ?trUtf8@QtVariantPropertyManager@@SA?AVQString@@PBD0@Z (public: static class QString __cdecl QtVariantPropertyManager::trUtf8(char const *,char const *))
                  ?trUtf8@QtVariantPropertyManager@@SA?AVQString@@PBD0H@Z (public: static class QString __cdecl QtVariantPropertyManager::trUtf8(char const *,char const *,int))
                  ?uninitializeProperty@QtAbstractPropertyManager@@MAEXPAVQtProperty@@@Z (protected: virtual void __thiscall QtAbstractPropertyManager::uninitializeProperty(class QtProperty *))
                  ?uninitializeProperty@QtBoolPropertyManager@@MAEXPAVQtProperty@@@Z (protected: virtual void __thiscall QtBoolPropertyManager::uninitializeProperty(class QtProperty *))
                  ?uninitializeProperty@QtCharPropertyManager@@MAEXPAVQtProperty@@@Z (protected: virtual void __thiscall QtCharPropertyManager::uninitializeProperty(class QtProperty *))
                  ?uninitializeProperty@QtColorPropertyManager@@MAEXPAVQtProperty@@@Z (protected: virtual void __thiscall QtColorPropertyManager::uninitializeProperty(class QtProperty *))
                  ?uninitializeProperty@QtCursorPropertyManager@@MAEXPAVQtProperty@@@Z (protected: virtual void __thiscall QtCursorPropertyManager::uninitializeProperty(class QtProperty *))
                  ?uninitializeProperty@QtDatePropertyManager@@MAEXPAVQtProperty@@@Z (protected: virtual void __thiscall QtDatePropertyManager::uninitializeProperty(class QtProperty *))
                  ?uninitializeProperty@QtDateTimePropertyManager@@MAEXPAVQtProperty@@@Z (protected: virtual void __thiscall QtDateTimePropertyManager::uninitializeProperty(class QtProperty *))
                  ?uninitializeProperty@QtDoublePropertyManager@@MAEXPAVQtProperty@@@Z (protected: virtual void __thiscall QtDoublePropertyManager::uninitializeProperty(class QtProperty *))
                  ?uninitializeProperty@QtEnumPropertyManager@@MAEXPAVQtProperty@@@Z (protected: virtual void __thiscall QtEnumPropertyManager::uninitializeProperty(class QtProperty *))
                  ?uninitializeProperty@QtFlagPropertyManager@@MAEXPAVQtProperty@@@Z (protected: virtual void __thiscall QtFlagPropertyManager::uninitializeProperty(class QtProperty *))
                  ?uninitializeProperty@QtFontPropertyManager@@MAEXPAVQtProperty@@@Z (protected: virtual void __thiscall QtFontPropertyManager::uninitializeProperty(class QtProperty *))
                  ?uninitializeProperty@QtGroupPropertyManager@@MAEXPAVQtProperty@@@Z (protected: virtual void __thiscall QtGroupPropertyManager::uninitializeProperty(class QtProperty *))
                  ?uninitializeProperty@QtIntPropertyManager@@MAEXPAVQtProperty@@@Z (protected: virtual void __thiscall QtIntPropertyManager::uninitializeProperty(class QtProperty *))
                  ?uninitializeProperty@QtKeySequencePropertyManager@@MAEXPAVQtProperty@@@Z (protected: virtual void __thiscall QtKeySequencePropertyManager::uninitializeProperty(class QtProperty *))
                  ?uninitializeProperty@QtLocalePropertyManager@@MAEXPAVQtProperty@@@Z (protected: virtual void __thiscall QtLocalePropertyManager::uninitializeProperty(class QtProperty *))
                  ?uninitializeProperty@QtPointFPropertyManager@@MAEXPAVQtProperty@@@Z (protected: virtual void __thiscall QtPointFPropertyManager::uninitializeProperty(class QtProperty *))
                  ?uninitializeProperty@QtPointPropertyManager@@MAEXPAVQtProperty@@@Z (protected: virtual void __thiscall QtPointPropertyManager::uninitializeProperty(class QtProperty *))
                  ?uninitializeProperty@QtRectFPropertyManager@@MAEXPAVQtProperty@@@Z (protected: virtual void __thiscall QtRectFPropertyManager::uninitializeProperty(class QtProperty *))
                  ?uninitializeProperty@QtRectPropertyManager@@MAEXPAVQtProperty@@@Z (protected: virtual void __thiscall QtRectPropertyManager::uninitializeProperty(class QtProperty *))
                  ?uninitializeProperty@QtSizeFPropertyManager@@MAEXPAVQtProperty@@@Z (protected: virtual void __thiscall QtSizeFPropertyManager::uninitializeProperty(class QtProperty *))
                  ?uninitializeProperty@QtSizePolicyPropertyManager@@MAEXPAVQtProperty@@@Z (protected: virtual void __thiscall QtSizePolicyPropertyManager::uninitializeProperty(class QtProperty *))
                  ?uninitializeProperty@QtSizePropertyManager@@MAEXPAVQtProperty@@@Z (protected: virtual void __thiscall QtSizePropertyManager::uninitializeProperty(class QtProperty *))
                  ?uninitializeProperty@QtStringPropertyManager@@MAEXPAVQtProperty@@@Z (protected: virtual void __thiscall QtStringPropertyManager::uninitializeProperty(class QtProperty *))
                  ?uninitializeProperty@QtTimePropertyManager@@MAEXPAVQtProperty@@@Z (protected: virtual void __thiscall QtTimePropertyManager::uninitializeProperty(class QtProperty *))
                  ?uninitializeProperty@QtVariantPropertyManager@@MAEXPAVQtProperty@@@Z (protected: virtual void __thiscall QtVariantPropertyManager::uninitializeProperty(class QtProperty *))
                  ?unsetFactoryForManager@QtAbstractPropertyBrowser@@QAEXPAVQtAbstractPropertyManager@@@Z (public: void __thiscall QtAbstractPropertyBrowser::unsetFactoryForManager(class QtAbstractPropertyManager *))
                  ?value@QtBoolPropertyManager@@QBE_NPBVQtProperty@@@Z (public: bool __thiscall QtBoolPropertyManager::value(class QtProperty const *)const )
                  ?value@QtCharPropertyManager@@QBE?AVQChar@@PBVQtProperty@@@Z (public: class QChar __thiscall QtCharPropertyManager::value(class QtProperty const *)const )
                  ?value@QtColorPropertyManager@@QBE?AVQColor@@PBVQtProperty@@@Z (public: class QColor __thiscall QtColorPropertyManager::value(class QtProperty const *)const )
                  ?value@QtCursorPropertyManager@@QBE?AVQCursor@@PBVQtProperty@@@Z (public: class QCursor __thiscall QtCursorPropertyManager::value(class QtProperty const *)const )
                  ?value@QtDatePropertyManager@@QBE?AVQDate@@PBVQtProperty@@@Z (public: class QDate __thiscall QtDatePropertyManager::value(class QtProperty const *)const )
                  ?value@QtDateTimePropertyManager@@QBE?AVQDateTime@@PBVQtProperty@@@Z (public: class QDateTime __thiscall QtDateTimePropertyManager::value(class QtProperty const *)const )
                  ?value@QtDoublePropertyManager@@QBENPBVQtProperty@@@Z (public: double __thiscall QtDoublePropertyManager::value(class QtProperty const *)const )
                  ?value@QtEnumPropertyManager@@QBEHPBVQtProperty@@@Z (public: int __thiscall QtEnumPropertyManager::value(class QtProperty const *)const )
                  ?value@QtFlagPropertyManager@@QBEHPBVQtProperty@@@Z (public: int __thiscall QtFlagPropertyManager::value(class QtProperty const *)const )
                  ?value@QtFontPropertyManager@@QBE?AVQFont@@PBVQtProperty@@@Z (public: class QFont __thiscall QtFontPropertyManager::value(class QtProperty const *)const )
                  ?value@QtIntPropertyManager@@QBEHPBVQtProperty@@@Z (public: int __thiscall QtIntPropertyManager::value(class QtProperty const *)const )
                  ?value@QtKeySequencePropertyManager@@QBE?AVQKeySequence@@PBVQtProperty@@@Z (public: class QKeySequence __thiscall QtKeySequencePropertyManager::value(class QtProperty const *)const )
                  ?value@QtLocalePropertyManager@@QBE?AVQLocale@@PBVQtProperty@@@Z (public: class QLocale __thiscall QtLocalePropertyManager::value(class QtProperty const *)const )
                  ?value@QtPointFPropertyManager@@QBE?AVQPointF@@PBVQtProperty@@@Z (public: class QPointF __thiscall QtPointFPropertyManager::value(class QtProperty const *)const )
                  ?value@QtPointPropertyManager@@QBE?AVQPoint@@PBVQtProperty@@@Z (public: class QPoint __thiscall QtPointPropertyManager::value(class QtProperty const *)const )
                  ?value@QtRectFPropertyManager@@QBE?AVQRectF@@PBVQtProperty@@@Z (public: class QRectF __thiscall QtRectFPropertyManager::value(class QtProperty const *)const )
                  ?value@QtRectPropertyManager@@QBE?AVQRect@@PBVQtProperty@@@Z (public: class QRect __thiscall QtRectPropertyManager::value(class QtProperty const *)const )
                  ?value@QtSizeFPropertyManager@@QBE?AVQSizeF@@PBVQtProperty@@@Z (public: class QSizeF __thiscall QtSizeFPropertyManager::value(class QtProperty const *)const )
                  ?value@QtSizePolicyPropertyManager@@QBE?AVQSizePolicy@@PBVQtProperty@@@Z (public: class QSizePolicy __thiscall QtSizePolicyPropertyManager::value(class QtProperty const *)const )
                  ?value@QtSizePropertyManager@@QBE?AVQSize@@PBVQtProperty@@@Z (public: class QSize __thiscall QtSizePropertyManager::value(class QtProperty const *)const )
                  ?value@QtStringPropertyManager@@QBE?AVQString@@PBVQtProperty@@@Z (public: class QString __thiscall QtStringPropertyManager::value(class QtProperty const *)const )
                  ?value@QtTimePropertyManager@@QBE?AVQTime@@PBVQtProperty@@@Z (public: class QTime __thiscall QtTimePropertyManager::value(class QtProperty const *)const )
                  ?value@QtVariantProperty@@QBE?AVQVariant@@XZ (public: class QVariant __thiscall QtVariantProperty::value(void)const )
                  ?value@QtVariantPropertyManager@@UBE?AVQVariant@@PBVQtProperty@@@Z (public: virtual class QVariant __thiscall QtVariantPropertyManager::value(class QtProperty const *)const )
                  ?valueChanged@QtBoolPropertyManager@@IAEXPAVQtProperty@@_N@Z (protected: void __thiscall QtBoolPropertyManager::valueChanged(class QtProperty *,bool))
                  ?valueChanged@QtCharPropertyManager@@IAEXPAVQtProperty@@ABVQChar@@@Z (protected: void __thiscall QtCharPropertyManager::valueChanged(class QtProperty *,class QChar const &))
                  ?valueChanged@QtColorPropertyManager@@IAEXPAVQtProperty@@ABVQColor@@@Z (protected: void __thiscall QtColorPropertyManager::valueChanged(class QtProperty *,class QColor const &))
                  ?valueChanged@QtCursorPropertyManager@@IAEXPAVQtProperty@@ABVQCursor@@@Z (protected: void __thiscall QtCursorPropertyManager::valueChanged(class QtProperty *,class QCursor const &))
                  ?valueChanged@QtDatePropertyManager@@IAEXPAVQtProperty@@ABVQDate@@@Z (protected: void __thiscall QtDatePropertyManager::valueChanged(class QtProperty *,class QDate const &))
                  ?valueChanged@QtDateTimePropertyManager@@IAEXPAVQtProperty@@ABVQDateTime@@@Z (protected: void __thiscall QtDateTimePropertyManager::valueChanged(class QtProperty *,class QDateTime const &))
                  ?valueChanged@QtDoublePropertyManager@@IAEXPAVQtProperty@@N@Z (protected: void __thiscall QtDoublePropertyManager::valueChanged(class QtProperty *,double))
                  ?valueChanged@QtEnumPropertyManager@@IAEXPAVQtProperty@@H@Z (protected: void __thiscall QtEnumPropertyManager::valueChanged(class QtProperty *,int))
                  ?valueChanged@QtFlagPropertyManager@@IAEXPAVQtProperty@@H@Z (protected: void __thiscall QtFlagPropertyManager::valueChanged(class QtProperty *,int))
                  ?valueChanged@QtFontPropertyManager@@IAEXPAVQtProperty@@ABVQFont@@@Z (protected: void __thiscall QtFontPropertyManager::valueChanged(class QtProperty *,class QFont const &))
                  ?valueChanged@QtIntPropertyManager@@IAEXPAVQtProperty@@H@Z (protected: void __thiscall QtIntPropertyManager::valueChanged(class QtProperty *,int))
                  ?valueChanged@QtKeySequencePropertyManager@@IAEXPAVQtProperty@@ABVQKeySequence@@@Z (protected: void __thiscall QtKeySequencePropertyManager::valueChanged(class QtProperty *,class QKeySequence const &))
                  ?valueChanged@QtLocalePropertyManager@@IAEXPAVQtProperty@@ABVQLocale@@@Z (protected: void __thiscall QtLocalePropertyManager::valueChanged(class QtProperty *,class QLocale const &))
                  ?valueChanged@QtPointFPropertyManager@@IAEXPAVQtProperty@@ABVQPointF@@@Z (protected: void __thiscall QtPointFPropertyManager::valueChanged(class QtProperty *,class QPointF const &))
                  ?valueChanged@QtPointPropertyManager@@IAEXPAVQtProperty@@ABVQPoint@@@Z (protected: void __thiscall QtPointPropertyManager::valueChanged(class QtProperty *,class QPoint const &))
                  ?valueChanged@QtRectFPropertyManager@@IAEXPAVQtProperty@@ABVQRectF@@@Z (protected: void __thiscall QtRectFPropertyManager::valueChanged(class QtProperty *,class QRectF const &))
                  ?valueChanged@QtRectPropertyManager@@IAEXPAVQtProperty@@ABVQRect@@@Z (protected: void __thiscall QtRectPropertyManager::valueChanged(class QtProperty *,class QRect const &))
                  ?valueChanged@QtSizeFPropertyManager@@IAEXPAVQtProperty@@ABVQSizeF@@@Z (protected: void __thiscall QtSizeFPropertyManager::valueChanged(class QtProperty *,class QSizeF const &))
                  ?valueChanged@QtSizePolicyPropertyManager@@IAEXPAVQtProperty@@ABVQSizePolicy@@@Z (protected: void __thiscall QtSizePolicyPropertyManager::valueChanged(class QtProperty *,class QSizePolicy const &))
                  ?valueChanged@QtSizePropertyManager@@IAEXPAVQtProperty@@ABVQSize@@@Z (protected: void __thiscall QtSizePropertyManager::valueChanged(class QtProperty *,class QSize const &))
                  ?valueChanged@QtStringPropertyManager@@IAEXPAVQtProperty@@ABVQString@@@Z (protected: void __thiscall QtStringPropertyManager::valueChanged(class QtProperty *,class QString const &))
                  ?valueChanged@QtTimePropertyManager@@IAEXPAVQtProperty@@ABVQTime@@@Z (protected: void __thiscall QtTimePropertyManager::valueChanged(class QtProperty *,class QTime const &))
                  ?valueChanged@QtVariantPropertyManager@@IAEXPAVQtProperty@@ABVQVariant@@@Z (protected: void __thiscall QtVariantPropertyManager::valueChanged(class QtProperty *,class QVariant const &))
                  ?valueIcon@QtAbstractPropertyManager@@MBE?AVQIcon@@PBVQtProperty@@@Z (protected: virtual class QIcon __thiscall QtAbstractPropertyManager::valueIcon(class QtProperty const *)const )
                  ?valueIcon@QtBoolPropertyManager@@MBE?AVQIcon@@PBVQtProperty@@@Z (protected: virtual class QIcon __thiscall QtBoolPropertyManager::valueIcon(class QtProperty const *)const )
                  ?valueIcon@QtColorPropertyManager@@MBE?AVQIcon@@PBVQtProperty@@@Z (protected: virtual class QIcon __thiscall QtColorPropertyManager::valueIcon(class QtProperty const *)const )
                  ?valueIcon@QtCursorPropertyManager@@MBE?AVQIcon@@PBVQtProperty@@@Z (protected: virtual class QIcon __thiscall QtCursorPropertyManager::valueIcon(class QtProperty const *)const )
                  ?valueIcon@QtEnumPropertyManager@@MBE?AVQIcon@@PBVQtProperty@@@Z (protected: virtual class QIcon __thiscall QtEnumPropertyManager::valueIcon(class QtProperty const *)const )
                  ?valueIcon@QtFontPropertyManager@@MBE?AVQIcon@@PBVQtProperty@@@Z (protected: virtual class QIcon __thiscall QtFontPropertyManager::valueIcon(class QtProperty const *)const )
                  ?valueIcon@QtProperty@@QBE?AVQIcon@@XZ (public: class QIcon __thiscall QtProperty::valueIcon(void)const )
                  ?valueIcon@QtVariantPropertyManager@@MBE?AVQIcon@@PBVQtProperty@@@Z (protected: virtual class QIcon __thiscall QtVariantPropertyManager::valueIcon(class QtProperty const *)const )
                  ?valueText@QtAbstractPropertyManager@@MBE?AVQString@@PBVQtProperty@@@Z (protected: virtual class QString __thiscall QtAbstractPropertyManager::valueText(class QtProperty const *)const )
                  ?valueText@QtBoolPropertyManager@@MBE?AVQString@@PBVQtProperty@@@Z (protected: virtual class QString __thiscall QtBoolPropertyManager::valueText(class QtProperty const *)const )
                  ?valueText@QtCharPropertyManager@@MBE?AVQString@@PBVQtProperty@@@Z (protected: virtual class QString __thiscall QtCharPropertyManager::valueText(class QtProperty const *)const )
                  ?valueText@QtColorPropertyManager@@MBE?AVQString@@PBVQtProperty@@@Z (protected: virtual class QString __thiscall QtColorPropertyManager::valueText(class QtProperty const *)const )
                  ?valueText@QtCursorPropertyManager@@MBE?AVQString@@PBVQtProperty@@@Z (protected: virtual class QString __thiscall QtCursorPropertyManager::valueText(class QtProperty const *)const )
                  ?valueText@QtDatePropertyManager@@MBE?AVQString@@PBVQtProperty@@@Z (protected: virtual class QString __thiscall QtDatePropertyManager::valueText(class QtProperty const *)const )
                  ?valueText@QtDateTimePropertyManager@@MBE?AVQString@@PBVQtProperty@@@Z (protected: virtual class QString __thiscall QtDateTimePropertyManager::valueText(class QtProperty const *)const )
                  ?valueText@QtDoublePropertyManager@@MBE?AVQString@@PBVQtProperty@@@Z (protected: virtual class QString __thiscall QtDoublePropertyManager::valueText(class QtProperty const *)const )
                  ?valueText@QtEnumPropertyManager@@MBE?AVQString@@PBVQtProperty@@@Z (protected: virtual class QString __thiscall QtEnumPropertyManager::valueText(class QtProperty const *)const )
                  ?valueText@QtFlagPropertyManager@@MBE?AVQString@@PBVQtProperty@@@Z (protected: virtual class QString __thiscall QtFlagPropertyManager::valueText(class QtProperty const *)const )
                  ?valueText@QtFontPropertyManager@@MBE?AVQString@@PBVQtProperty@@@Z (protected: virtual class QString __thiscall QtFontPropertyManager::valueText(class QtProperty const *)const )
                  ?valueText@QtIntPropertyManager@@MBE?AVQString@@PBVQtProperty@@@Z (protected: virtual class QString __thiscall QtIntPropertyManager::valueText(class QtProperty const *)const )
                  ?valueText@QtKeySequencePropertyManager@@MBE?AVQString@@PBVQtProperty@@@Z (protected: virtual class QString __thiscall QtKeySequencePropertyManager::valueText(class QtProperty const *)const )
                  ?valueText@QtLocalePropertyManager@@MBE?AVQString@@PBVQtProperty@@@Z (protected: virtual class QString __thiscall QtLocalePropertyManager::valueText(class QtProperty const *)const )
                  ?valueText@QtPointFPropertyManager@@MBE?AVQString@@PBVQtProperty@@@Z (protected: virtual class QString __thiscall QtPointFPropertyManager::valueText(class QtProperty const *)const )
                  ?valueText@QtPointPropertyManager@@MBE?AVQString@@PBVQtProperty@@@Z (protected: virtual class QString __thiscall QtPointPropertyManager::valueText(class QtProperty const *)const )
                  ?valueText@QtProperty@@QBE?AVQString@@XZ (public: class QString __thiscall QtProperty::valueText(void)const )
                  ?valueText@QtRectFPropertyManager@@MBE?AVQString@@PBVQtProperty@@@Z (protected: virtual class QString __thiscall QtRectFPropertyManager::valueText(class QtProperty const *)const )
                  ?valueText@QtRectPropertyManager@@MBE?AVQString@@PBVQtProperty@@@Z (protected: virtual class QString __thiscall QtRectPropertyManager::valueText(class QtProperty const *)const )
                  ?valueText@QtSizeFPropertyManager@@MBE?AVQString@@PBVQtProperty@@@Z (protected: virtual class QString __thiscall QtSizeFPropertyManager::valueText(class QtProperty const *)const )
                  ?valueText@QtSizePolicyPropertyManager@@MBE?AVQString@@PBVQtProperty@@@Z (protected: virtual class QString __thiscall QtSizePolicyPropertyManager::valueText(class QtProperty const *)const )
                  ?valueText@QtSizePropertyManager@@MBE?AVQString@@PBVQtProperty@@@Z (protected: virtual class QString __thiscall QtSizePropertyManager::valueText(class QtProperty const *)const )
                  ?valueText@QtStringPropertyManager@@MBE?AVQString@@PBVQtProperty@@@Z (protected: virtual class QString __thiscall QtStringPropertyManager::valueText(class QtProperty const *)const )
                  ?valueText@QtTimePropertyManager@@MBE?AVQString@@PBVQtProperty@@@Z (protected: virtual class QString __thiscall QtTimePropertyManager::valueText(class QtProperty const *)const )
                  ?valueText@QtVariantPropertyManager@@MBE?AVQString@@PBVQtProperty@@@Z (protected: virtual class QString __thiscall QtVariantPropertyManager::valueText(class QtProperty const *)const )
                  ?valueType@QtVariantProperty@@QBEHXZ (public: int __thiscall QtVariantProperty::valueType(void)const )
                  ?valueType@QtVariantPropertyManager@@QBEHPBVQtProperty@@@Z (public: int __thiscall QtVariantPropertyManager::valueType(class QtProperty const *)const )
                  ?valueType@QtVariantPropertyManager@@UBEHH@Z (public: virtual int __thiscall QtVariantPropertyManager::valueType(int)const )
                  ?variantProperty@QtVariantPropertyManager@@QBEPAVQtVariantProperty@@PBVQtProperty@@@Z (public: class QtVariantProperty * __thiscall QtVariantPropertyManager::variantProperty(class QtProperty const *)const )
                  ?whatsThis@QtProperty@@QBE?AVQString@@XZ (public: class QString __thiscall QtProperty::whatsThis(void)const )

  Summary

         111 .debug$S
          14 .idata$2
          14 .idata$3
           4 .idata$4
           4 .idata$5
          26 .idata$6
